L251 LINKER/LOCATER V4.66.93.0                                                          06/12/2025  20:04:03  PAGE 1


L251 LINKER/LOCATER V4.66.93.0, INVOKED BY:
C:\KEIL_V5\C251\BIN\L251.EXE .\out_file\ai8051u_isr.obj, .\out_file\zf_common_clock.obj, .\out_file\zf_common_debug.obj,
>>  .\out_file\zf_common_fifo.obj, .\out_file\zf_common_font.obj, .\out_file\zf_common_function.obj, .\out_file\zf_commo
>> n_typedef.obj, .\out_file\zf_common_interrupt.obj, .\out_file\START251.obj, .\out_file\zf_driver_adc.obj, .\out_file\
>> zf_driver_delay.obj, .\out_file\zf_driver_eeprom.obj, .\out_file\zf_driver_encoder.obj, .\out_file\zf_driver_exti.obj
>> , .\out_file\zf_driver_gpio.obj, .\out_file\zf_driver_pit.obj, .\out_file\zf_driver_pwm.obj, .\out_file\zf_driver_sof
>> t_iic.obj, .\out_file\zf_driver_spi.obj, .\out_file\zf_driver_timer.obj, .\out_file\zf_driver_uart.obj, .\out_file\zf
>> _device_type.obj, .\out_file\zf_device_ips200.obj, .\out_file\zf_device_ble6a20.obj, .\out_file\zf_device_imu660ra.ob
>> j, .\out_file\zf_device_config.obj, .\out_file\seekfree_assistant.obj, .\out_file\seekfree_assistant_interface.obj, .
>> \out_file\isr.obj, .\out_file\main.obj, .\out_file\command.obj, .\out_file\key.obj, .\out_file\menu.obj, .\out_file\I
>> MU.obj, .\out_file\contrl.obj, .\out_file\set_task.obj, .\out_file\image.obj TO .\out_file\SEEKFREE PRINT (.\out_file
>> \SEEKFREE.map) CASE DISABLEWARNING (57, 16) REMOVEUNUSED CLASSES (EDATA (0X0-0X7FF), HDATA (0X0-0X7FF))


CPU MODE:     251 SOURCE MODE
INTR FRAME:   4 BYTES SAVED ON INTERRUPT
MEMORY MODEL: LARGE WITH FLOATING POINT ARITHMETIC


INPUT MODULES INCLUDED:
  .\out_file\ai8051u_isr.obj (ai8051u_isr)
         COMMENT TYPE 0: A251 V4.69.13.0
  .\out_file\zf_common_clock.obj (zf_common_clock)
         COMMENT TYPE 0: C251 V5.60.0
  .\out_file\zf_common_debug.obj (zf_common_debug)
         COMMENT TYPE 0: C251 V5.60.0
  .\out_file\zf_common_fifo.obj (zf_common_fifo)
         COMMENT TYPE 0: C251 V5.60.0
  .\out_file\zf_common_font.obj (zf_common_font)
         COMMENT TYPE 0: C251 V5.60.0
  .\out_file\zf_common_function.obj (zf_common_function)
         COMMENT TYPE 0: C251 V5.60.0
  .\out_file\zf_common_typedef.obj (zf_common_typedef)
         COMMENT TYPE 0: C251 V5.60.0
  .\out_file\zf_common_interrupt.obj (zf_common_interrupt)
         COMMENT TYPE 0: C251 V5.60.0
  .\out_file\START251.obj (?C_START)
         COMMENT TYPE 0: A251 V4.69.13.0
  .\out_file\zf_driver_adc.obj (zf_driver_adc)
         COMMENT TYPE 0: C251 V5.60.0
  .\out_file\zf_driver_delay.obj (zf_driver_delay)
         COMMENT TYPE 0: C251 V5.60.0
  .\out_file\zf_driver_eeprom.obj (zf_driver_eeprom)
         COMMENT TYPE 0: C251 V5.60.0
  .\out_file\zf_driver_encoder.obj (zf_driver_encoder)
         COMMENT TYPE 0: C251 V5.60.0
  .\out_file\zf_driver_exti.obj (zf_driver_exti)
         COMMENT TYPE 0: C251 V5.60.0
  .\out_file\zf_driver_gpio.obj (zf_driver_gpio)
         COMMENT TYPE 0: C251 V5.60.0
  .\out_file\zf_driver_pit.obj (zf_driver_pit)
         COMMENT TYPE 0: C251 V5.60.0
  .\out_file\zf_driver_pwm.obj (zf_driver_pwm)
         COMMENT TYPE 0: C251 V5.60.0
  .\out_file\zf_driver_soft_iic.obj (zf_driver_soft_iic)
         COMMENT TYPE 0: C251 V5.60.0
  .\out_file\zf_driver_spi.obj (zf_driver_spi)
         COMMENT TYPE 0: C251 V5.60.0
  .\out_file\zf_driver_timer.obj (zf_driver_timer)
         COMMENT TYPE 0: C251 V5.60.0
  .\out_file\zf_driver_uart.obj (zf_driver_uart)
         COMMENT TYPE 0: C251 V5.60.0
  .\out_file\zf_device_type.obj (zf_device_type)
         COMMENT TYPE 0: C251 V5.60.0
  .\out_file\zf_device_ips200.obj (zf_device_ips200)
         COMMENT TYPE 0: C251 V5.60.0
L251 LINKER/LOCATER V4.66.93.0                                                        06/12/2025  20:04:03  PAGE 2


  .\out_file\zf_device_ble6a20.obj (zf_device_ble6a20)
         COMMENT TYPE 0: C251 V5.60.0
  .\out_file\zf_device_imu660ra.obj (zf_device_imu660ra)
         COMMENT TYPE 0: C251 V5.60.0
  .\out_file\zf_device_config.obj (zf_device_config)
         COMMENT TYPE 0: C251 V5.60.0
  .\out_file\seekfree_assistant.obj (seekfree_assistant)
         COMMENT TYPE 0: C251 V5.60.0
  .\out_file\seekfree_assistant_interface.obj (seekfree_assistant_interface)
         COMMENT TYPE 0: C251 V5.60.0
  .\out_file\isr.obj (isr)
         COMMENT TYPE 0: C251 V5.60.0
  .\out_file\main.obj (main)
         COMMENT TYPE 0: C251 V5.60.0
  .\out_file\command.obj (command)
         COMMENT TYPE 0: C251 V5.60.0
  .\out_file\key.obj (key)
         COMMENT TYPE 0: C251 V5.60.0
  .\out_file\menu.obj (menu)
         COMMENT TYPE 0: C251 V5.60.0
  .\out_file\IMU.obj (IMU)
         COMMENT TYPE 0: C251 V5.60.0
  .\out_file\contrl.obj (contrl)
         COMMENT TYPE 0: C251 V5.60.0
  .\out_file\set_task.obj (set_task)
         COMMENT TYPE 0: C251 V5.60.0
  .\out_file\image.obj (image)
         COMMENT TYPE 0: C251 V5.60.0
  C:\KEIL_V5\C251\LIB\C2SFPL.LIB (?C?FPADD)
         COMMENT TYPE 0: A251 V4.69.6.0
  C:\KEIL_V5\C251\LIB\C2SFPL.LIB (?C?FPMUL)
         COMMENT TYPE 0: A251 V4.69.6.0
  C:\KEIL_V5\C251\LIB\C2SFPL.LIB (?C?FPDIV)
         COMMENT TYPE 0: A251 V4.69.6.0
  C:\KEIL_V5\C251\LIB\C2SFPL.LIB (?C?FPCMP)
         COMMENT TYPE 0: A251 V4.69.6.0
  C:\KEIL_V5\C251\LIB\C2SFPL.LIB (?C?FPNEG)
         COMMENT TYPE 0: A251 V4.69.6.0
  C:\KEIL_V5\C251\LIB\C2SFPL.LIB (?C?FCAST)
         COMMENT TYPE 0: A251 V4.69.6.0
  C:\KEIL_V5\C251\LIB\C2SFPL.LIB (?C?CASTF)
         COMMENT TYPE 0: A251 V4.69.6.0
  C:\KEIL_V5\C251\LIB\C2SFPL.LIB (PRINTF)
         COMMENT TYPE 0: A251 V4.69.6.0
  C:\KEIL_V5\C251\LIB\C2SFPL.LIB (SPRINTF)
         COMMENT TYPE 0: A251 V4.69.6.0
  C:\KEIL_V5\C251\LIB\C2SFPL.LIB (VSPRINTF)
         COMMENT TYPE 0: A251 V4.69.6.0
  C:\KEIL_V5\C251\LIB\C2SFPL.LIB (FABS)
         COMMENT TYPE 0: A251 V4.69.6.0
  C:\KEIL_V5\C251\LIB\C2SFPL.LIB (SQRT?_)
         COMMENT TYPE 0: A251 V4.69.6.0
  C:\KEIL_V5\C251\LIB\C2SFPL.LIB (SIN?_)
         COMMENT TYPE 0: A251 V4.69.6.0
  C:\KEIL_V5\C251\LIB\C2SFPL.LIB (atan2)
         COMMENT TYPE 0: C251 V5.58.7
  C:\KEIL_V5\C251\LIB\C2SFPL.LIB (?C?FPGETOPN)
         COMMENT TYPE 0: A251 V4.69.6.0
  C:\KEIL_V5\C251\LIB\C2SFPL.LIB (?C?PRNFMT)
         COMMENT TYPE 0: A251 V4.69.6.0
  C:\KEIL_V5\C251\LIB\C2SFPL.LIB (?C?FPSERIES)
         COMMENT TYPE 0: A251 V4.69.6.0
  C:\KEIL_V5\C251\LIB\C2SFPL.LIB (ATAN?_)
         COMMENT TYPE 0: A251 V4.69.6.0
  C:\KEIL_V5\C251\LIB\C2SFPL.LIB (?C?FPCONVERT)
L251 LINKER/LOCATER V4.66.93.0                                                        06/12/2025  20:04:03  PAGE 3


         COMMENT TYPE 0: A251 V4.69.6.0
  C:\KEIL_V5\C251\LIB\C2SFPL.LIB (?C?FTNPWR)
         COMMENT TYPE 0: A251 V4.69.6.0
  C:\KEIL_V5\C251\LIB\C2SL.LIB (?C?INITHDATA)
         COMMENT TYPE 0: A251 V4.69.6.0
  C:\KEIL_V5\C251\LIB\C2SL.LIB (?C?SIDIV)
         COMMENT TYPE 0: A251 V4.69.6.0
  C:\KEIL_V5\C251\LIB\C2SL.LIB (?C?LIMUL)
         COMMENT TYPE 0: A251 V4.69.6.0
  C:\KEIL_V5\C251\LIB\C2SL.LIB (?C?ULDIV)
         COMMENT TYPE 0: A251 V4.69.6.0
  C:\KEIL_V5\C251\LIB\C2SL.LIB (?C?SLDIV)
         COMMENT TYPE 0: A251 V4.69.6.0
  C:\KEIL_V5\C251\LIB\C2SL.LIB (?C?BMOVEPP)
         COMMENT TYPE 0: A251 V4.69.6.0
  C:\KEIL_V5\C251\LIB\C2SL.LIB (ABS)
         COMMENT TYPE 0: C251 V5.58.7
  C:\KEIL_V5\C251\LIB\C2SL.LIB (STRCPY?_)
         COMMENT TYPE 0: A251 V4.69.6.0
  C:\KEIL_V5\C251\LIB\C2SL.LIB (STRCMP?_)
         COMMENT TYPE 0: A251 V4.69.6.0
  C:\KEIL_V5\C251\LIB\C2SL.LIB (STRLEN)
         COMMENT TYPE 0: C251 V5.58.7
  C:\KEIL_V5\C251\LIB\C2SL.LIB (memcpy)
         COMMENT TYPE 0: C251 V5.58.7
  C:\KEIL_V5\C251\LIB\C2SL.LIB (memset)
         COMMENT TYPE 0: C251 V5.58.7
  C:\KEIL_V5\C251\LIB\C2SL.LIB (?C?INITHDATA_END)
         COMMENT TYPE 0: A251 V4.69.6.0


ACTIVE MEMORY CLASSES OF MODULE:  .\out_file\SEEKFREE (ai8051u_isr)

BASE        START       END         USED      MEMORY CLASS
==========================================================
000000H     000000H     0007FFH     000700H   EDATA
000000H     000000H     0007FFH               HDATA
FF0000H     FF0000H     FFFFFFH     00E2BAH   CODE
010000H     010000H     01FFFFH     002F04H   XDATA
000000H     FF0000H     FFFFFFH     0013EBH   HCONST
000020H.0   000020H.0   00002FH.7   000000H.4 BIT
FF0000H     FF0000H     FFFFFFH     000004H   CONST
000000H     000000H     00007FH     000008H   DATA


MEMORY MAP OF MODULE:  .\out_file\SEEKFREE (ai8051u_isr)


START     STOP      LENGTH    ALIGN  RELOC    MEMORY CLASS   SEGMENT NAME
=========================================================================
000000H   000007H   000008H   ---    AT..     DATA           "REG BANK 0"
000008H.0 00001FH.7 000018H.0 ---    ---      **GAP**
000020H.0 000020H.0 000000H.1 BIT    UNIT     BIT            ?BI?IAP_READ_BYTE?ZF_DRIVER_EEPROM
000020H.1 000020H.1 000000H.1 BIT    UNIT     BIT            ?BI?IAP_WRITE_BYTE?ZF_DRIVER_EEPROM
000020H.2 000020H.2 000000H.1 BIT    UNIT     BIT            ?BI?IAP_ERASE_PAGE?ZF_DRIVER_EEPROM
000020H.3 000020H.3 000000H.1 BIT    UNIT     BIT            ?BI?SEEKFREE_ASSISTANT_DATA_ANALYSIS?SEEKFREE_ASSISTANT
000020H.4 000020H   000000H.4 ---    ---      **GAP**
000021H   000720H   000700H   BYTE   UNIT     EDATA          ?STACK
000721H   00FFFFH   00F8DFH   ---    ---      **GAP**
010000H   010FCFH   000FD0H   BYTE   INSEG    XDATA          ?XD?IMU
010FD0H   011E07H   000E38H   BYTE   INSEG    XDATA          ?XD?MENU
011E08H   012011H   00020AH   BYTE   UNIT     XDATA          ?XD?EXTERN_IAP_WRITE_BUFF?ZF_DRIVER_EEPROM
012012H   01214EH   00013DH   BYTE   INSEG    XDATA          ?XD?SEEKFREE_ASSISTANT
01214FH   012282H   000134H   BYTE   INSEG    XDATA          ?XD?CONTRL
012283H   0123B4H   000132H   BYTE   UNIT     XDATA          ?XD?UART_PRINTF?COMMAND
L251 LINKER/LOCATER V4.66.93.0                                                        06/12/2025  20:04:03  PAGE 4


0123B5H   0124BCH   000108H   BYTE   UNIT     XDATA          ?XD?UART_WRITE_STRING?ZF_DRIVER_UART
0124BDH   01255FH   0000A3H   BYTE   INSEG    XDATA          ?XD?COMMAND
012560H   0125EEH   00008FH   BYTE   UNIT     XDATA          ?XD?SEEKFREE_ASSISTANT_DATA_ANALYSIS?SEEKFREE_ASSISTANT
0125EFH   01264DH   00005FH   BYTE   UNIT     XDATA          ?XD?ZF_SPRINTF?ZF_COMMON_FUNCTION
01264EH   0126A6H   000059H   BYTE   INSEG    XDATA          ?XD?ZF_COMMON_DEBUG
0126A7H   0126FDH   000057H   BYTE   INSEG    XDATA          ?XD?ZF_DEVICE_BLE6A20
0126FEH   01273BH   00003EH   BYTE   INSEG    XDATA          ?XD?SET_TASK
01273CH   012773H   000038H   BYTE   UNIT     XDATA          ?XD?FUNC_DOUBLE_TO_STR?ZF_COMMON_FUNCTION
012774H   0127A3H   000030H   BYTE   UNIT     XDATA          ?XD?IPS200_SHOW_FLOAT?ZF_DEVICE_IPS200
0127A4H   0127CDH   00002AH   BYTE   UNIT     XDATA          ?XD?FUNC_FLOAT_TO_STR?ZF_COMMON_FUNCTION
0127CEH   0127F7H   00002AH   BYTE   UNIT     XDATA          ?XD?SEEKFREE_ASSISTANT_OSCILLOSCOPE_SEND?SEEKFREE_ASSISTAN
                                                             -T
0127F8H   01281FH   000028H   BYTE   UNIT     XDATA          ?XD?IMAGE_PATH?IMAGE
012820H   012847H   000028H   BYTE   UNIT     XDATA          _XDATA_GROUP_
012848H   01286CH   000025H   BYTE   UNIT     XDATA          ?XD?FUNC_HEX_TO_STR?ZF_COMMON_FUNCTION
01286DH   01288DH   000021H   BYTE   UNIT     XDATA          ?XD?FUNCTION_ANGLE_PID_SETTING?MENU
01288EH   0128AEH   000021H   BYTE   UNIT     XDATA          ?XD?FUNCTION_ANGLE_SPEED_PID_SETTING?MENU
0128AFH   0128CFH   000021H   BYTE   UNIT     XDATA          ?XD?FUNCTION_LEFT_MOTOR_PID_SETTING?MENU
0128D0H   0128F0H   000021H   BYTE   UNIT     XDATA          ?XD?FUNCTION_RIGHT_MOTOR_PID_SETTING?MENU
0128F1H   012910H   000020H   BYTE   INSEG    XDATA          ?XD?KEY
012911H   01292FH   00001FH   BYTE   UNIT     XDATA          ?XD?SEEKFREE_ASSISTANT_CAMERA_BOUNDARY_CONFIG?SEEKFREE_ASS
                                                             -ISTANT
012930H   01294DH   00001EH   BYTE   INSEG    XDATA          ?XD?ZF_COMMON_TYPEDEF
01294EH   01296AH   00001DH   BYTE   UNIT     XDATA          ?XD?FUNC_INT_TO_STR?ZF_COMMON_FUNCTION
01296BH   012986H   00001CH   BYTE   UNIT     XDATA          ?XD?QUATERNION_UPDATE?IMU
012987H   0129A2H   00001CH   BYTE   UNIT     XDATA          ?XD?QUATERNION_TO_EULER?IMU
0129A3H   0129BBH   000019H   BYTE   UNIT     XDATA          ?XD?FUNC_UINT_TO_STR?ZF_COMMON_FUNCTION
0129BCH   0129D3H   000018H   BYTE   UNIT     XDATA          ?XD?FIFO_READ_BUFFER?ZF_COMMON_FIFO
0129D4H   0129E7H   000014H   BYTE   UNIT     XDATA          ?XD?NUMBER_CONVERSION_ASCII?ZF_COMMON_FUNCTION
0129E8H   0129FBH   000014H   BYTE   UNIT     XDATA          ?XD?PWM_SET_FREQ?ZF_DRIVER_PWM
0129FCH   012A0FH   000014H   BYTE   UNIT     XDATA          ?XD?SOFT_IIC_TRANSFER_8BIT_ARRAY?ZF_DRIVER_SOFT_IIC
012A10H   012A23H   000014H   BYTE   UNIT     XDATA          ?XD?SOFT_IIC_TRANSFER_16BIT_ARRAY?ZF_DRIVER_SOFT_IIC
012A24H   012A37H   000014H   BYTE   UNIT     XDATA          ?XD?SPI_INIT?ZF_DRIVER_SPI
012A38H   012A4BH   000014H   BYTE   INSEG    XDATA          ?XD?ZF_DEVICE_IMU660RA
012A4CH   012A5EH   000013H   BYTE   UNIT     XDATA          ?XD?IMU660RA_READ_REGISTERS?ZF_DEVICE_IMU660RA
012A5FH   012A70H   000012H   BYTE   UNIT     XDATA          ?XD?FIFO_WRITE_BUFFER?ZF_COMMON_FIFO
012A71H   012A82H   000012H   BYTE   UNIT     XDATA          ?XD?PWM_INIT?ZF_DRIVER_PWM
012A83H   012A93H   000011H   BYTE   UNIT     XDATA          ?XD?FUNC_STR_TO_FLOAT?ZF_COMMON_FUNCTION
012A94H   012AA4H   000011H   BYTE   UNIT     XDATA          ?XD?FUNC_STR_TO_DOUBLE?ZF_COMMON_FUNCTION
012AA5H   012AB4H   000010H   BYTE   UNIT     XDATA          ?XD?INDUCTANCE_DIFFERENCE_RATIO_SUM?CONTRL
012AB5H   012AC3H   00000FH   BYTE   UNIT     XDATA          ?XD?SEEKFREE_ASSISTANT_CAMERA_DATA_SEND?SEEKFREE_ASSISTANT
012AC4H   012AD1H   00000EH   BYTE   UNIT     XDATA          ?XD?FIFO_INIT?ZF_COMMON_FIFO
012AD2H   012ADFH   00000EH   BYTE   UNIT     XDATA          ?XD?FUNC_STR_TO_HEX?ZF_COMMON_FUNCTION
012AE0H   012AEDH   00000EH   BYTE   UNIT     XDATA          ?XD?PWM_SET_DUTY?ZF_DRIVER_PWM
012AEEH   012AFBH   00000EH   BYTE   UNIT     XDATA          ?XD?SOFT_IIC_WRITE_16BIT_REGISTERS?ZF_DRIVER_SOFT_IIC
012AFCH   012B09H   00000EH   BYTE   UNIT     XDATA          ?XD?SOFT_IIC_READ_16BIT_REGISTERS?ZF_DRIVER_SOFT_IIC
012B0AH   012B17H   00000EH   BYTE   UNIT     XDATA          ?XD?SPI_TRANSFER_8BIT?ZF_DRIVER_SPI
012B18H   012B25H   00000EH   BYTE   UNIT     XDATA          ?XD?SPI_TRANSFER_16BIT?ZF_DRIVER_SPI
012B26H   012B33H   00000EH   BYTE   UNIT     XDATA          ?XD?MENU_DISPLAY?MENU
012B34H   012B40H   00000DH   BYTE   UNIT     XDATA          ?XD?PRINTF_REVERSE_ORDER?ZF_COMMON_FUNCTION
012B41H   012B4DH   00000DH   BYTE   UNIT     XDATA          ?XD?SOFT_IIC_WRITE_8BIT_REGISTERS?ZF_DRIVER_SOFT_IIC
012B4EH   012B5AH   00000DH   BYTE   UNIT     XDATA          ?XD?SOFT_IIC_READ_8BIT_REGISTERS?ZF_DRIVER_SOFT_IIC
012B5BH   012B67H   00000DH   BYTE   UNIT     XDATA          ?XD?SOFT_IIC_INIT?ZF_DRIVER_SOFT_IIC
012B68H   012B73H   00000CH   BYTE   UNIT     XDATA          ?XD?SOFT_IIC_WRITE_8BIT_ARRAY?ZF_DRIVER_SOFT_IIC
012B74H   012B7FH   00000CH   BYTE   UNIT     XDATA          ?XD?SOFT_IIC_WRITE_16BIT_ARRAY?ZF_DRIVER_SOFT_IIC
012B80H   012B8BH   00000CH   BYTE   UNIT     XDATA          ?XD?SOFT_IIC_READ_8BIT_ARRAY?ZF_DRIVER_SOFT_IIC
012B8CH   012B97H   00000CH   BYTE   UNIT     XDATA          ?XD?SOFT_IIC_READ_16BIT_ARRAY?ZF_DRIVER_SOFT_IIC
012B98H   012BA3H   00000CH   BYTE   UNIT     XDATA          ?XD?SPI_WRITE_16BIT_REGISTERS?ZF_DRIVER_SPI
012BA4H   012BAFH   00000CH   BYTE   UNIT     XDATA          ?XD?SPI_READ_16BIT_REGISTERS?ZF_DRIVER_SPI
012BB0H   012BBBH   00000CH   BYTE   INSEG    XDATA          ?XD?ZF_DRIVER_TIMER
012BBCH   012BC7H   00000CH   BYTE   INSEG    XDATA          ?XD?ZF_DRIVER_UART
012BC8H   012BD3H   00000CH   BYTE   UNIT     XDATA          ?XD?UART_INIT?ZF_DRIVER_UART
012BD4H   012BDFH   00000CH   BYTE   UNIT     XDATA          ?XD?IPS200_SHOW_INT16?ZF_DEVICE_IPS200
012BE0H   012BEBH   00000CH   BYTE   UNIT     XDATA          ?XD?IPS200_SHOW_UINT16?ZF_DEVICE_IPS200
012BECH   012BF7H   00000CH   BYTE   UNIT     XDATA          ?XD?BLE6A20_READ_BUFFER?ZF_DEVICE_BLE6A20
L251 LINKER/LOCATER V4.66.93.0                                                        06/12/2025  20:04:03  PAGE 5


012BF8H   012C03H   00000CH   BYTE   UNIT     XDATA          ?XD?MENU_PROCESS_BUTTONS?MENU
012C04H   012C0FH   00000CH   BYTE   UNIT     XDATA          ?XD?CONSTRAIN_FLOAT?CONTRL
012C10H   012C1BH   00000CH   BYTE   UNIT     XDATA          ?XD?ANGLE_SPEED_CONTROL?CONTRL
012C1CH   012C27H   00000CH   BYTE   UNIT     XDATA          ?XD?SPEED_CONTROL_L?CONTRL
012C28H   012C33H   00000CH   BYTE   UNIT     XDATA          ?XD?SPEED_CONTROL_R?CONTRL
012C34H   012C3EH   00000BH   BYTE   UNIT     XDATA          ?XD?PIT_INIT?ZF_DRIVER_PIT
012C3FH   012C49H   00000BH   BYTE   UNIT     XDATA          ?XD?SPI_WRITE_8BIT_REGISTERS?ZF_DRIVER_SPI
012C4AH   012C54H   00000BH   BYTE   UNIT     XDATA          ?XD?SPI_READ_8BIT_REGISTERS?ZF_DRIVER_SPI
012C55H   012C5EH   00000AH   BYTE   UNIT     XDATA          ?XD?IAP_READ_BUFF?ZF_DRIVER_EEPROM
012C5FH   012C68H   00000AH   BYTE   UNIT     XDATA          ?XD?IAP_WRITE_BUFF?ZF_DRIVER_EEPROM
012C69H   012C72H   00000AH   BYTE   UNIT     XDATA          ?XD?SPI_WRITE_8BIT_ARRAY?ZF_DRIVER_SPI
012C73H   012C7CH   00000AH   BYTE   UNIT     XDATA          ?XD?SPI_WRITE_16BIT_ARRAY?ZF_DRIVER_SPI
012C7DH   012C86H   00000AH   BYTE   UNIT     XDATA          ?XD?SPI_READ_8BIT_ARRAY?ZF_DRIVER_SPI
012C87H   012C90H   00000AH   BYTE   UNIT     XDATA          ?XD?SPI_READ_16BIT_ARRAY?ZF_DRIVER_SPI
012C91H   012C9AH   00000AH   BYTE   INSEG    XDATA          ?XD?ZF_DEVICE_IPS200
012C9BH   012CA4H   00000AH   BYTE   UNIT     XDATA          ?XD?IPS200_SHOW_STRING?ZF_DEVICE_IPS200
012CA5H   012CAEH   00000AH   BYTE   UNIT     XDATA          ?XD?BLE6A20_SEND_BUFFER?ZF_DEVICE_BLE6A20
012CAFH   012CB8H   00000AH   BYTE   UNIT     XDATA          ?XD?SEEKFREE_ASSISTANT_CAMERA_INFORMATION_CONFIG?SEEKFREE_
                                                             -ASSISTANT
012CB9H   012CC2H   00000AH   BYTE   INSEG    XDATA          ?XD?IMAGE
012CC3H   012CCBH   000009H   BYTE   UNIT     XDATA          ?XD?FUNC_STR_TO_INT?ZF_COMMON_FUNCTION
012CCCH   012CD4H   000009H   BYTE   UNIT     XDATA          ?XD?IPS200_SHOW_INT8?ZF_DEVICE_IPS200
012CD5H   012CDDH   000009H   BYTE   UNIT     XDATA          ?XD?IPS200_SHOW_UINT8?ZF_DEVICE_IPS200
012CDEH   012CE6H   000009H   BYTE   UNIT     XDATA          ?XD?IMU660RA_WRITE_REGISTERS?ZF_DEVICE_IMU660RA
012CE7H   012CEFH   000009H   BYTE   UNIT     XDATA          ?XD?SEEKFREE_ASSISTANT_SUM?SEEKFREE_ASSISTANT
012CF0H   012CF8H   000009H   BYTE   UNIT     XDATA          ?XD?EEPROM_WRITE?COMMAND
012CF9H   012D01H   000009H   BYTE   UNIT     XDATA          ?XD?EEPROM_INIT_CODE?COMMAND
012D02H   012D09H   000008H   BYTE   UNIT     XDATA          ?XD?DEBUG_SEND_BUFFER?ZF_COMMON_DEBUG
012D0AH   012D11H   000008H   BYTE   UNIT     XDATA          ?XD?DEBUG_READ_BUFFER?ZF_COMMON_DEBUG
012D12H   012D19H   000008H   BYTE   UNIT     XDATA          ?XD?FIFO_HEAD_OFFSET?ZF_COMMON_FIFO
012D1AH   012D21H   000008H   BYTE   UNIT     XDATA          ?XD?FIFO_END_OFFSET?ZF_COMMON_FIFO
012D22H   012D29H   000008H   BYTE   UNIT     XDATA          ?XD?FUNC_GET_GREATEST_COMMON_DIVISOR?ZF_COMMON_FUNCTION
012D2AH   012D31H   000008H   BYTE   UNIT     XDATA          ?XD?FUNC_STR_TO_UINT?ZF_COMMON_FUNCTION
012D32H   012D39H   000008H   BYTE   UNIT     XDATA          ?XD?ADC_MEAN_FILTER_CONVERT?ZF_DRIVER_ADC
012D3AH   012D41H   000008H   BYTE   UNIT     XDATA          ?XD?SOFT_IIC_DELAY?ZF_DRIVER_SOFT_IIC
012D42H   012D49H   000008H   BYTE   UNIT     XDATA          ?XD?SOFT_IIC_WRITE_16BIT_REGISTER?ZF_DRIVER_SOFT_IIC
012D4AH   012D51H   000008H   BYTE   UNIT     XDATA          ?XD?SOFT_IIC_READ_16BIT_REGISTER?ZF_DRIVER_SOFT_IIC
012D52H   012D59H   000008H   BYTE   UNIT     XDATA          ?XD?UART_WRITE_BUFFER?ZF_DRIVER_UART
012D5AH   012D61H   000008H   BYTE   UNIT     XDATA          ?XD?SET_WIRELESS_TYPE?ZF_DEVICE_TYPE
012D62H   012D69H   000008H   BYTE   UNIT     XDATA          ?XD?IPS200_SET_REGION?ZF_DEVICE_IPS200
012D6AH   012D71H   000008H   BYTE   UNIT     XDATA          ?XD?IPS200_SHOW_CHAR?ZF_DEVICE_IPS200
012D72H   012D79H   000008H   BYTE   UNIT     XDATA          ?XD?QUAT_NORMALIZE?IMU
012D7AH   012D81H   000008H   BYTE   UNIT     XDATA          ?XD?PIDLOCCTRL?CONTRL
012D82H   012D89H   000008H   BYTE   UNIT     XDATA          ?XD?PIDINCCTRL?CONTRL
012D8AH   012D91H   000008H   BYTE   UNIT     XDATA          ?XD?ANGLE_CONTROL?CONTRL
012D92H   012D99H   000008H   BYTE   UNIT     XDATA          ?XD?CORE_TRACE?CONTRL
012D9AH   012DA0H   000007H   BYTE   UNIT     XDATA          ?XD?GPIO_INIT?ZF_DRIVER_GPIO
012DA1H   012DA7H   000007H   BYTE   UNIT     XDATA          ?XD?SOFT_IIC_READ_DATA?ZF_DRIVER_SOFT_IIC
012DA8H   012DAEH   000007H   BYTE   UNIT     XDATA          ?XD?UART_QUERY_BYTE?ZF_DRIVER_UART
012DAFH   012DB5H   000007H   BYTE   UNIT     XDATA          ?XD?SEEKFREE_ASSISTANT_CAMERA_DOT_SEND?SEEKFREE_ASSISTANT
012DB6H   012DBBH   000006H   BYTE   UNIT     XDATA          ?XD?FIFO_CLEAR?ZF_COMMON_FIFO
012DBCH   012DC1H   000006H   BYTE   INSEG    XDATA          ?XD?ZF_DRIVER_ENCODER
012DC2H   012DC7H   000006H   BYTE   UNIT     XDATA          ?XD?ENCODER_DIR_INIT?ZF_DRIVER_ENCODER
012DC8H   012DCDH   000006H   BYTE   UNIT     XDATA          ?XD?SOFT_IIC_SEND_DATA?ZF_DRIVER_SOFT_IIC
012DCEH   012DD3H   000006H   BYTE   UNIT     XDATA          ?XD?SOFT_IIC_WRITE_16BIT?ZF_DRIVER_SOFT_IIC
012DD4H   012DD9H   000006H   BYTE   UNIT     XDATA          ?XD?SOFT_IIC_WRITE_8BIT_REGISTER?ZF_DRIVER_SOFT_IIC
012DDAH   012DDFH   000006H   BYTE   UNIT     XDATA          ?XD?SOFT_IIC_READ_16BIT?ZF_DRIVER_SOFT_IIC
012DE0H   012DE5H   000006H   BYTE   UNIT     XDATA          ?XD?SOFT_IIC_READ_8BIT_REGISTER?ZF_DRIVER_SOFT_IIC
012DE6H   012DEBH   000006H   BYTE   UNIT     XDATA          ?XD?SOFT_IIC_SCCB_WRITE_REGISTER?ZF_DRIVER_SOFT_IIC
012DECH   012DF1H   000006H   BYTE   UNIT     XDATA          ?XD?SOFT_IIC_SCCB_READ_REGISTER?ZF_DRIVER_SOFT_IIC
012DF2H   012DF7H   000006H   BYTE   UNIT     XDATA          ?XD?SPI_WRITE_16BIT_REGISTER?ZF_DRIVER_SPI
012DF8H   012DFDH   000006H   BYTE   UNIT     XDATA          ?XD?SPI_READ_16BIT_REGISTER?ZF_DRIVER_SPI
012DFEH   012E03H   000006H   BYTE   UNIT     XDATA          ?XD?IPS200_CLEAR?ZF_DEVICE_IPS200
012E04H   012E09H   000006H   BYTE   UNIT     XDATA          ?XD?IPS200_DRAW_POINT?ZF_DEVICE_IPS200
012E0AH   012E0FH   000006H   BYTE   UNIT     XDATA          ?XD?IMU660RA_GET_ACC?ZF_DEVICE_IMU660RA
L251 LINKER/LOCATER V4.66.93.0                                                        06/12/2025  20:04:03  PAGE 6


012E10H   012E15H   000006H   BYTE   UNIT     XDATA          ?XD?IMU660RA_GET_GYRO?ZF_DEVICE_IMU660RA
012E16H   012E1AH   000005H   BYTE   UNIT     XDATA          ?XD?IAP_READ_BYTE?ZF_DRIVER_EEPROM
012E1BH   012E1FH   000005H   BYTE   UNIT     XDATA          ?XD?IAP_WRITE_BYTE?ZF_DRIVER_EEPROM
012E20H   012E24H   000005H   BYTE   UNIT     XDATA          ?XD?SOFT_IIC_SEND_ACK?ZF_DRIVER_SOFT_IIC
012E25H   012E29H   000005H   BYTE   UNIT     XDATA          ?XD?SOFT_IIC_WAIT_ACK?ZF_DRIVER_SOFT_IIC
012E2AH   012E2EH   000005H   BYTE   UNIT     XDATA          ?XD?SOFT_IIC_WRITE_8BIT?ZF_DRIVER_SOFT_IIC
012E2FH   012E33H   000005H   BYTE   UNIT     XDATA          ?XD?SOFT_IIC_READ_8BIT?ZF_DRIVER_SOFT_IIC
012E34H   012E38H   000005H   BYTE   UNIT     XDATA          ?XD?TIMER_FUNCITON_CHECK?ZF_DRIVER_TIMER
012E39H   012E3DH   000005H   BYTE   UNIT     XDATA          ?XD?UART_FUNCITON_CHECK?ZF_DRIVER_UART
012E3EH   012E41H   000004H   BYTE   INSEG    XDATA          ?XD?ZF_COMMON_CLOCK
012E42H   012E45H   000004H   BYTE   UNIT     XDATA          ?XD?CLOCK_INIT?ZF_COMMON_CLOCK
012E46H   012E49H   000004H   BYTE   UNIT     XDATA          ?XD?FIFO_USED?ZF_COMMON_FIFO
012E4AH   012E4DH   000004H   BYTE   UNIT     XDATA          ?XD?FUNC_SOFT_DELAY?ZF_COMMON_FUNCTION
012E4EH   012E51H   000004H   BYTE   UNIT     XDATA          ?XD?ADC_CONVERT?ZF_DRIVER_ADC
012E52H   012E55H   000004H   BYTE   UNIT     XDATA          ?XD?ADC_INIT?ZF_DRIVER_ADC
012E56H   012E59H   000004H   BYTE   INSEG    XDATA          ?XD?ZF_DRIVER_DELAY
012E5AH   012E5DH   000004H   BYTE   UNIT     XDATA          ?XD?SYSTEM_DELAY_MS?ZF_DRIVER_DELAY
012E5EH   012E61H   000004H   BYTE   UNIT     XDATA          ?XD?SYSTEM_DELAY_US?ZF_DRIVER_DELAY
012E62H   012E65H   000004H   BYTE   UNIT     XDATA          ?XD?IAP_ERASE_PAGE?ZF_DRIVER_EEPROM
012E66H   012E69H   000004H   BYTE   UNIT     XDATA          ?XD?ENCODER_GET_COUNT?ZF_DRIVER_ENCODER
012E6AH   012E6DH   000004H   BYTE   UNIT     XDATA          ?XD?GPIO_SET_MODE?ZF_DRIVER_GPIO
012E6EH   012E71H   000004H   BYTE   UNIT     XDATA          ?XD?GPIO_SET_LEVEL_SPEED?ZF_DRIVER_GPIO
012E72H   012E75H   000004H   BYTE   UNIT     XDATA          ?XD?GPIO_SET_DIR?ZF_DRIVER_GPIO
012E76H   012E79H   000004H   BYTE   UNIT     XDATA          ?XD?SOFT_IIC_START?ZF_DRIVER_SOFT_IIC
012E7AH   012E7DH   000004H   BYTE   UNIT     XDATA          ?XD?SOFT_IIC_STOP?ZF_DRIVER_SOFT_IIC
012E7EH   012E81H   000004H   BYTE   UNIT     XDATA          ?XD?SPI_READ_DAT?ZF_DRIVER_SPI
012E82H   012E85H   000004H   BYTE   UNIT     XDATA          ?XD?SPI_WRITE_16BIT?ZF_DRIVER_SPI
012E86H   012E89H   000004H   BYTE   UNIT     XDATA          ?XD?SPI_WRITE_8BIT_REGISTER?ZF_DRIVER_SPI
012E8AH   012E8DH   000004H   BYTE   UNIT     XDATA          ?XD?SPI_READ_16BIT?ZF_DRIVER_SPI
012E8EH   012E91H   000004H   BYTE   UNIT     XDATA          ?XD?IPS200_SET_COLOR?ZF_DEVICE_IPS200
012E92H   012E95H   000004H   BYTE   UNIT     XDATA          ?XD?IMU660RA_SELF_CHECK?ZF_DEVICE_IMU660RA
012E96H   012E99H   000004H   BYTE   INSEG    XDATA          ?XD?SEEKFREE_ASSISTANT_INTERFACE
012E9AH   012E9DH   000004H   BYTE   UNIT     XDATA          ?XD?EEPROM_WRITE_INDUCTANCE_MAX_MIN?COMMAND
012E9EH   012EA1H   000004H   BYTE   UNIT     XDATA          ?XD?EEPROM_READ_INDUCTANCE_MAX_MIN?COMMAND
012EA2H   012EA5H   000004H   BYTE   UNIT     XDATA          ?XD?IMU_LVBO?IMU
012EA6H   012EA9H   000004H   BYTE   UNIT     XDATA          ?XD?GYRO_CALIBRATE?IMU
012EAAH   012EADH   000004H   BYTE   UNIT     XDATA          ?XD?GET_QUATERNION?IMU
012EAEH   012EB0H   000003H   BYTE   UNIT     XDATA          ?XD?INTERRUPT_SET_PRIORITY?ZF_COMMON_INTERRUPT
012EB1H   012EB3H   000003H   BYTE   UNIT     XDATA          ?XD?GPIO_GET_LEVEL?ZF_DRIVER_GPIO
012EB4H   012EB6H   000003H   BYTE   UNIT     XDATA          ?XD?GPIO_SET_LEVEL?ZF_DRIVER_GPIO
012EB7H   012EB9H   000003H   BYTE   UNIT     XDATA          ?XD?SPI_WRITE_DAT?ZF_DRIVER_SPI
012EBAH   012EBCH   000003H   BYTE   UNIT     XDATA          ?XD?SPI_WRITE_8BIT?ZF_DRIVER_SPI
012EBDH   012EBFH   000003H   BYTE   UNIT     XDATA          ?XD?SPI_READ_8BIT_REGISTER?ZF_DRIVER_SPI
012EC0H   012EC2H   000003H   BYTE   UNIT     XDATA          ?XD?UART_WRITE_BYTE?ZF_DRIVER_UART
012EC3H   012EC5H   000003H   BYTE   UNIT     XDATA          ?XD?UART_RX_INTERRUPT?ZF_DRIVER_UART
012EC6H   012EC8H   000003H   BYTE   UNIT     XDATA          ?XD?UART_READ_BYTE?ZF_DRIVER_UART
012EC9H   012ECBH   000003H   BYTE   UNIT     XDATA          ?XD?BLE6A20_SEND_BYTE?ZF_DEVICE_BLE6A20
012ECCH   012ECEH   000003H   BYTE   UNIT     XDATA          ?XD?IMU660RA_READ_REGISTER?ZF_DEVICE_IMU660RA
012ECFH   012ED1H   000003H   BYTE   UNIT     XDATA          ?XD?FUNCTION_RESET_PID?MENU
012ED2H   012ED3H   000002H   BYTE   UNIT     XDATA          ?XD?ENCODER_CLEAR_COUNT?ZF_DRIVER_ENCODER
012ED4H   012ED5H   000002H   BYTE   UNIT     XDATA          ?XD?GPIO_TOGGLE_LEVEL?ZF_DRIVER_GPIO
012ED6H   012ED7H   000002H   BYTE   UNIT     XDATA          ?XD?GPIO_SET_IMPEDANCE?ZF_DRIVER_GPIO
012ED8H   012ED9H   000002H   BYTE   UNIT     XDATA          ?XD?SPI_READ_8BIT?ZF_DRIVER_SPI
012EDAH   012EDBH   000002H   BYTE   UNIT     XDATA          ?XD?UART_RX_START_BUFF?ZF_DRIVER_UART
012EDCH   012EDDH   000002H   BYTE   UNIT     XDATA          ?XD?UART_DMA_INIT?ZF_DRIVER_UART
012EDEH   012EDFH   000002H   BYTE   INSEG    XDATA          ?XD?ZF_DEVICE_TYPE
012EE0H   012EE1H   000002H   BYTE   UNIT     XDATA          ?XD?IPS200_SET_DIR?ZF_DEVICE_IPS200
012EE2H   012EE3H   000002H   BYTE   UNIT     XDATA          ?XD?IMU660RA_WRITE_REGISTER?ZF_DEVICE_IMU660RA
012EE4H   012EE5H   000002H   BYTE   UNIT     XDATA          ?XD?SEEKFREE_ASSISTANT_INTERFACE_INIT?SEEKFREE_ASSISTANT_I
                                                             -NTERFACE
012EE6H   012EE7H   000002H   BYTE   UNIT     XDATA          ?XD?BUZZER_TIME?COMMAND
012EE8H   012EE9H   000002H   BYTE   UNIT     XDATA          ?XD?FUNCTION_SPEED_SETTING?MENU
012EEAH   012EEAH   000001H   BYTE   UNIT     XDATA          ?XD?DEBUG_INTERRUPR_HANDLER?ZF_COMMON_DEBUG
012EEBH   012EEBH   000001H   BYTE   UNIT     XDATA          ?XD?PUTCHAR?ZF_COMMON_DEBUG
012EECH   012EECH   000001H   BYTE   UNIT     XDATA          ?XD?DEBUG_INIT?ZF_COMMON_DEBUG
L251 LINKER/LOCATER V4.66.93.0                                                        06/12/2025  20:04:03  PAGE 7


012EEDH   012EEDH   000001H   BYTE   INSEG    XDATA          ?XD?ZF_DRIVER_ADC
012EEEH   012EEEH   000001H   BYTE   UNIT     XDATA          ?XD?IAP_SET_TPS?ZF_DRIVER_EEPROM
012EEFH   012EEFH   000001H   BYTE   UNIT     XDATA          ?XD?IPS200_WRITE_INDEX?ZF_DEVICE_IPS200
012EF0H   012EF0H   000001H   BYTE   UNIT     XDATA          ?XD?BLE6A20_CALLBACK?ZF_DEVICE_BLE6A20
012EF1H   012EF1H   000001H   BYTE   UNIT     XDATA          ?XD?BLE6A20_INIT?ZF_DEVICE_BLE6A20
012EF2H   012EF2H   000001H   BYTE   UNIT     XDATA          ?XD?IMU660RA_INIT?ZF_DEVICE_IMU660RA
012EF3H   012EF3H   000001H   BYTE   INSEG    XDATA          ?XD?ISR
012EF4H   012EF4H   000001H   BYTE   UNIT     XDATA          ?XD?SEEKFREE_ASSISTANT_OSCILLOSCOPE_CODE?COMMAND
012EF5H   012EF5H   000001H   BYTE   UNIT     XDATA          ?XD?UART_PRINTF_TEST?COMMAND
012EF6H   012EF6H   000001H   BYTE   UNIT     XDATA          ?XD?BUTTON_ENTRY?KEY
012EF7H   012EF7H   000001H   BYTE   UNIT     XDATA          ?XD?SEEKFREE_ASSISTANT_OPEN?MENU
012EF8H   012EF8H   000001H   BYTE   UNIT     XDATA          ?XD?FUNCTION_INDUCTANCE_MAX_MIN_SETTING?MENU
012EF9H   012EF9H   000001H   BYTE   UNIT     XDATA          ?XD?FUNCTION_INDUCTANCE_MAX_MIN_SHOW?MENU
012EFAH   012EFAH   000001H   BYTE   UNIT     XDATA          ?XD?FUNCTION_KEY_TEST?MENU
012EFBH   012EFBH   000001H   BYTE   UNIT     XDATA          ?XD?FUNCTION_IMU_TEST?MENU
012EFCH   012EFCH   000001H   BYTE   UNIT     XDATA          ?XD?FUNCTION_UART_PRINTF_TEST?MENU
012EFDH   012EFDH   000001H   BYTE   UNIT     XDATA          ?XD?FUNCTION_ADC_TEST?MENU
012EFEH   012EFEH   000001H   BYTE   UNIT     XDATA          ?XD?FUNCTION_ENCODER_TEST?MENU
012EFFH   012EFFH   000001H   BYTE   UNIT     XDATA          ?XD?FUNCTION_IPS_TEST?MENU
012F00H   012F00H   000001H   BYTE   UNIT     XDATA          ?XD?FUNCTION_BUZZER_TEST?MENU
012F01H   012F01H   000001H   BYTE   UNIT     XDATA          ?XD?FUNCTION_IMAGE_PATH_TEST?MENU
012F02H   012F02H   000001H   BYTE   UNIT     XDATA          ?XD?FUNCTION_SENSOR_CALIBRATION?MENU
012F03H   012F03H   000001H   BYTE   UNIT     XDATA          ?XD?SET_TASK_MODE?SET_TASK
012F04H   FEFFFFH   FDD0FCH   ---    ---      **GAP**
FF0000H   FF0002H   000003H   ---    OFFS..   CODE           ?CO?START251?4
FF0003H   FF000AH   000008H   BYTE   INSEG    CODE           ?PR?EEPROM_ERASE?COMMAND
FF000BH   FF000DH   000003H   ---    OFFS..   CODE           ?PR?IV?1
FF000EH   FF0018H   00000BH   BYTE   INSEG    CODE           ?PR?EEPROM_TRIG?ZF_DRIVER_EEPROM
FF0019H   FF001AH   000002H   ---    ---      **GAP**
FF001BH   FF001DH   000003H   ---    OFFS..   CODE           ?PR?IV?3
FF001EH   FF0021H   000004H   BYTE   INSEG    CODE           ?PR?IMU_ISR?IMU
FF0022H   FF0022H   000001H   ---    ---      **GAP**
FF0023H   FF0025H   000003H   ---    OFFS..   CODE           ?PR?IV?4
FF0026H   FF003FH   00001AH   BYTE   INSEG    CODE           ?PR?IPS200_WRITE_INDEX?ZF_DEVICE_IPS200
FF0040H   FF0042H   000003H   BYTE   INSEG    CODE           ?PR?INTERRUPT_GLOBAL_ENABLE?ZF_COMMON_INTERRUPT
FF0043H   FF0045H   000003H   ---    OFFS..   CODE           ?PR?IV?8
FF0046H   FF005FH   00001AH   BYTE   UNIT     CODE           ?PR?STRCMP?_
FF0060H   FF0062H   000003H   BYTE   UNIT     HCONST         ?HC?ZF_DEVICE_IPS200
FF0063H   FF0065H   000003H   ---    OFFS..   CODE           ?PR?IV?12
FF0066H   FF008AH   000025H   BYTE   INSEG    CODE           ?PR?IPS200_SET_COLOR?ZF_DEVICE_IPS200
FF008BH   FF008DH   000003H   ---    OFFS..   CODE           ?PR?IV?17
FF008EH   FF0091H   000004H   BYTE   UNIT     CONST          ?CO?PRINTF
FF0092H   FF0092H   000001H   ---    ---      **GAP**
FF0093H   FF0095H   000003H   ---    OFFS..   CODE           ?PR?IV?18
FF0096H   FF009AH   000005H   ---    ---      **GAP**
FF009BH   FF009DH   000003H   ---    OFFS..   CODE           ?PR?IV?19
FF009EH   FF00A2H   000005H   ---    ---      **GAP**
FF00A3H   FF00A5H   000003H   ---    OFFS..   CODE           ?PR?IV?20
FF00A6H   FF00BDH   000018H   BYTE   INSEG    CODE           ?PR?SPI_WRITE_8BIT?ZF_DRIVER_SPI
FF00BEH   FF00C2H   000005H   ---    ---      **GAP**
FF00C3H   FF00C5H   000003H   ---    OFFS..   CODE           ?PR?IV?24
FF00C6H   FF0195H   0000D0H   BYTE   INSEG    CODE           ?PR?ENCODER_DIR_INIT?ZF_DRIVER_ENCODER
FF0196H   FF019AH   000005H   ---    ---      **GAP**
FF019BH   FF019DH   000003H   ---    OFFS..   CODE           ?CO?ai8051u_isr?1
FF019EH   FF01A8H   00000BH   BYTE   INSEG    CODE           ?PR?SEEKFREE_ASSISTANT_OSCILLOSCOPE_INIT?COMMAND
FF01A9H   FF01AAH   000002H   ---    ---      **GAP**
FF01ABH   FF01ADH   000003H   ---    OFFS..   CODE           ?CO?ai8051u_isr?2
FF01AEH   FF01B4H   000007H   BYTE   INSEG    CODE           ?PR?IAP_INIT?ZF_DRIVER_EEPROM
FF01B5H   FF01BAH   000006H   ---    ---      **GAP**
FF01BBH   FF01BDH   000003H   ---    OFFS..   CODE           ?CO?ai8051u_isr?3
FF01BEH   FF01C4H   000007H   BYTE   INSEG    CODE           ?PR?ANGLE_DEBUG?CONTRL
FF01C5H   FF01CAH   000006H   ---    ---      **GAP**
FF01CBH   FF01CDH   000003H   ---    OFFS..   CODE           ?CO?ai8051u_isr?4
FF01CEH   FF0219H   00004CH   BYTE   INSEG    CODE           ?PR?IAP_ERASE_PAGE?ZF_DRIVER_EEPROM
FF021AH   FF021AH   000001H   ---    ---      **GAP**
L251 LINKER/LOCATER V4.66.93.0                                                        06/12/2025  20:04:03  PAGE 8


FF021BH   FF021DH   000003H   ---    OFFS..   CODE           ?CO?ai8051u_isr?5
FF021EH   FF221DH   002000H   BYTE   UNIT     CODE           ?CO?ZF_DEVICE_CONFIG
FF221EH   FF2F16H   000CF9H   BYTE   UNIT     CODE           ?C?LIB_CODE
FF2F17H   FF356FH   000659H   BYTE   INSEG    CODE           ?PR?SEEKFREE_ASSISTANT_SET_PARAMETER?COMMAND
FF3570H   FF3B8CH   00061DH   BYTE   INSEG    CODE           ?PR?MENU_INIT?MENU
FF3B8DH   FF417CH   0005F0H   BYTE   UNIT     CODE           ?CO?ZF_COMMON_FONT
FF417DH   FF470CH   000590H   BYTE   INSEG    CODE           ?PR?PWM_INIT?ZF_DRIVER_PWM
FF470DH   FF4C47H   00053BH   BYTE   INSEG    CODE           ?PR?FIFO_WRITE_BUFFER?ZF_COMMON_FIFO
FF4C48H   FF516BH   000524H   BYTE   INSEG    CODE           ?PR?FIFO_READ_BUFFER?ZF_COMMON_FIFO
FF516CH   FF5630H   0004C5H   BYTE   INSEG    CODE           ?PR?GPIO_SET_DIR?ZF_DRIVER_GPIO
FF5631H   FF5AA7H   000477H   BYTE   INSEG    CODE           ?PR?SPI_INIT?ZF_DRIVER_SPI
FF5AA8H   FF5ED6H   00042FH   BYTE   INSEG    CODE           ?PR?INDUCTANCE_JUDGMENT?CONTRL
FF5ED7H   FF62B2H   0003DCH   BYTE   INSEG    CODE           ?PR?MAIN?MAIN
FF62B3H   FF6636H   000384H   BYTE   INSEG    CODE           ?PR?QUATERNION_UPDATE?IMU
FF6637H   FF6978H   000342H   BYTE   INSEG    CODE           ?PR?FUNCTION_RIGHT_MOTOR_PID_SETTING?MENU
FF6979H   FF6CA3H   00032BH   BYTE   INSEG    CODE           ?PR?FUNCTION_ANGLE_SPEED_PID_SETTING?MENU
FF6CA4H   FF6FCEH   00032BH   BYTE   INSEG    CODE           ?PR?FUNCTION_ANGLE_PID_SETTING?MENU
FF6FCFH   FF72EAH   00031CH   BYTE   INSEG    CODE           ?PR?FUNCTION_LEFT_MOTOR_PID_SETTING?MENU
FF72EBH   FF75DDH   0002F3H   BYTE   INSEG    CODE           ?PR?PIT_INIT?ZF_DRIVER_PIT
FF75DEH   FF78A4H   0002C7H   BYTE   INSEG    CODE           ?PR?GPIO_SET_LEVEL_SPEED?ZF_DRIVER_GPIO
FF78A5H   FF7B5DH   0002B9H   BYTE   INSEG    CODE           ?PR?PIDINIT?CONTRL
FF7B5EH   FF7DF4H   000297H   BYTE   INSEG    CODE           ?PR?GPIO_SET_MODE?ZF_DRIVER_GPIO
FF7DF5H   FF807EH   00028AH   BYTE   INSEG    CODE           ?PR?EEPROM_READ_INDUCTANCE_MAX_MIN?COMMAND
FF807FH   FF8301H   000283H   BYTE   INSEG    CODE           ?PR?BUTTON_ENTRY?KEY
FF8302H   FF8581H   000280H   BYTE   INSEG    CODE           ?PR?SEEKFREE_ASSISTANT_DATA_ANALYSIS?SEEKFREE_ASSISTANT
FF8582H   FF87E2H   000261H   BYTE   INSEG    CODE           ?PR?EEPROM_WRITE?COMMAND
FF87E3H   FF8A3BH   000259H   BYTE   INSEG    CODE           ?PR?GYRO_CALIBRATE?IMU
FF8A3CH   FF8C8CH   000251H   BYTE   INSEG    CODE           ?PR?UART_INIT?ZF_DRIVER_UART
FF8C8DH   FF8EDAH   00024EH   BYTE   INSEG    CODE           ?PR?EEPROM_INIT_CODE?COMMAND
FF8EDBH   FF911CH   000242H   BYTE   INSEG    CODE           ?PR?EEPROM_WRITE_INDUCTANCE_MAX_MIN?COMMAND
FF911DH   FF9357H   00023BH   BYTE   INSEG    CODE           ?PR?MENU_PROCESS_BUTTONS?MENU
FF9358H   FF958FH   000238H   BYTE   INSEG    CODE           ?PR?IPS200_INIT?ZF_DEVICE_IPS200
FF9590H   FF97C7H   000238H   BYTE   INSEG    CODE           ?PR?FUNCTION_RESET_PID?MENU
FF97C8H   FF99FEH   000237H   BYTE   INSEG    CODE           ?PR?IMU660RA_INIT?ZF_DEVICE_IMU660RA
FF99FFH   FF9BFFH   000201H   BYTE   INSEG    CODE           ?PR?MENU_DISPLAY?MENU
FF9C00H   FF9DF7H   0001F8H   BYTE   INSEG    CODE           ?PR?QUAT_NORMALIZE?IMU
FF9DF8H   FF9FE4H   0001EDH   BYTE   INSEG    CODE           ?PR?FUNCTION_INDUCTANCE_MAX_MIN_SHOW?MENU
FF9FE5H   FFA1AFH   0001CBH   BYTE   INSEG    CODE           ?PR?MENU_RUN?MENU
FFA1B0H   FFA376H   0001C7H   BYTE   INSEG    CODE           ?PR?PIDLOCCTRL?CONTRL
FFA377H   FFA51FH   0001A9H   BYTE   INSEG    CODE           ?PR?GPIO_SET_LEVEL?ZF_DRIVER_GPIO
FFA520H   FFA6C4H   0001A5H   BYTE   INSEG    CODE           ?PR?CORE_TRACE?CONTRL
FFA6C5H   FFA864H   0001A0H   BYTE   INSEG    CODE           ?PR?PIDINCCTRL?CONTRL
FFA865H   FFA9ECH   000188H   BYTE   INSEG    CODE           ?PR?PWM_SET_DUTY?ZF_DRIVER_PWM
FFA9EDH   FFAB73H   000187H   BYTE   INSEG    CODE           ?PR?ADC_TEXT?COMMAND
FFAB74H   FFACF8H   000185H   BYTE   INSEG    CODE           ?PR?UART_DMA_INIT?ZF_DRIVER_UART
FFACF9H   FFAE77H   00017FH   BYTE   INSEG    CODE           ?PR?NUMBER_CONVERSION_ASCII?ZF_COMMON_FUNCTION
FFAE78H   FFAFE8H   000171H   BYTE   INSEG    CODE           ?PR?GPIO_SET_IMPEDANCE?ZF_DRIVER_GPIO
FFAFE9H   FFB144H   00015CH   BYTE   INSEG    CODE           ?PR?CONTROL_OUTPUT?CONTRL
FFB145H   FFB27DH   000139H   BYTE   INSEG    CODE           ?PR?UART_WRITE_BUFFER?ZF_DRIVER_UART
FFB27EH   FFB3B1H   000134H   BYTE   INSEG    CODE           ?PR?ENCODER_GET_COUNT?ZF_DRIVER_ENCODER
FFB3B2H   FFB4D2H   000121H   BYTE   INSEG    CODE           ?PR?QUATERNION_TO_EULER?IMU
FFB4D3H   FFB5E9H   000117H   BYTE   INSEG    CODE           ?PR?QUATERNION_DISPLAY?IMU
FFB5EAH   FFB6FEH   000115H   BYTE   INSEG    CODE           ?PR?IPS200_SHOW_INT16?ZF_DEVICE_IPS200
FFB6FFH   FFB805H   000107H   BYTE   INSEG    CODE           ?PR?GPIO_GET_LEVEL?ZF_DRIVER_GPIO
FFB806H   FFB90AH   000105H   BYTE   INSEG    CODE           ?PR?INDUCTANCE_DIFFERENCE_RATIO_SUM?CONTRL
FFB90BH   FFBA00H   0000F6H   BYTE   INSEG    CODE           ?PR?ANGLE_CONTROL?CONTRL
FFBA01H   FFBAECH   0000ECH   BYTE   INSEG    CODE           ?PR?CLOCK_INIT?ZF_COMMON_CLOCK
FFBAEDH   FFBBCFH   0000E3H   BYTE   INSEG    CODE           ?PR?BLE6A20_SEND_BUFFER?ZF_DEVICE_BLE6A20
FFBBD0H   FFBCADH   0000DEH   BYTE   INSEG    CODE           ?PR?FUNCTION_SPEED_SETTING?MENU
FFBCAEH   FFBD87H   0000DAH   BYTE   INSEG    CODE           ?PR?SPEED_CONTROL_R?CONTRL
FFBD88H   FFBE5FH   0000D8H   BYTE   INSEG    CODE           ?PR?SPEED_CONTROL_L?CONTRL
FFBE60H   FFBF36H   0000D7H   BYTE   INSEG    CODE           ?PR?GPIO_INIT?ZF_DRIVER_GPIO
FFBF37H   FFBFF4H   0000BEH   BYTE   INSEG    CODE           ?PR?TO_INIT?COMMAND
FFBFF5H   FFC0B0H   0000BCH   BYTE   INSEG    CODE           ?PR?IPS200_SHOW_CHAR?ZF_DEVICE_IPS200
FFC0B1H   FFC16CH   0000BCH   BYTE   INSEG    CODE           ?PR?IMU660RA_READ_REGISTERS?ZF_DEVICE_IMU660RA
L251 LINKER/LOCATER V4.66.93.0                                                        06/12/2025  20:04:03  PAGE 9


FFC16DH   FFC21FH   0000B3H   BYTE   INSEG    CODE           ?PR?SOFT_IIC_WAIT_ACK?ZF_DRIVER_SOFT_IIC
FFC220H   FFC2D2H   0000B3H   BYTE   INSEG    CODE           ?PR?ANGLE_SPEED_CONTROL?CONTRL
FFC2D3H   FFC384H   0000B2H   BYTE   INSEG    CODE           ?PR?UART_RX_START_BUFF?ZF_DRIVER_UART
FFC385H   FFC435H   0000B1H   BYTE   INSEG    CODE           ?PR?FIFO_INIT?ZF_COMMON_FIFO
FFC436H   FFC4E4H   0000AFH   BYTE   INSEG    CODE           ?PR?ADC_INIT?ZF_DRIVER_ADC
FFC4E5H   FFC589H   0000A5H   BYTE   INSEG    CODE           ?PR?DMA_UART1_IRQHANDLER?ISR
FFC58AH   FFC62DH   0000A4H   BYTE   INSEG    CODE           ?PR?FUNCTION_SENSOR_CALIBRATION?MENU
FFC62EH   FFC6CEH   0000A1H   BYTE   INSEG    CODE           ?PR?ENCODER_CLEAR_COUNT?ZF_DRIVER_ENCODER
FFC6CFH   FFC76EH   0000A0H   BYTE   INSEG    CODE           ?PR?KEY_TEXT?KEY
FFC76FH   FFC80CH   00009EH   BYTE   INSEG    CODE           ?PR?DEBUG_INIT?ZF_COMMON_DEBUG
FFC80DH   FFC8A3H   000097H   BYTE   INSEG    CODE           ?PR?FIFO_HEAD_OFFSET?ZF_COMMON_FIFO
FFC8A4H   FFC93AH   000097H   BYTE   INSEG    CODE           ?PR?FIFO_END_OFFSET?ZF_COMMON_FIFO
FFC93BH   FFC9D1H   000097H   BYTE   INSEG    CODE           ?PR?SET_WIRELESS_TYPE?ZF_DEVICE_TYPE
FFC9D2H   FFCA66H   000095H   BYTE   INSEG    CODE           ?PR?IPS200_SHOW_UINT8?ZF_DEVICE_IPS200
FFCA67H   FFCAF5H   00008FH   BYTE   INSEG    CODE           ?PR?UART_QUERY_BYTE?ZF_DRIVER_UART
FFCAF6H   FFCB7EH   000089H   BYTE   INSEG    CODE           ?PR?DMA_UART2_IRQHANDLER?ISR
FFCB7FH   FFCC07H   000089H   BYTE   INSEG    CODE           ?PR?DMA_UART3_IRQHANDLER?ISR
FFCC08H   FFCC90H   000089H   BYTE   INSEG    CODE           ?PR?DMA_UART4_IRQHANDLER?ISR
FFCC91H   FFCD19H   000089H   BYTE   INSEG    CODE           ?PR?ADC_MAIN_READ?COMMAND
FFCD1AH   FFCDA1H   000088H   BYTE   INSEG    CODE           ?PR?SYSTEM_DELAY_MS?ZF_DRIVER_DELAY
FFCDA2H   FFCE29H   000088H   BYTE   INSEG    CODE           ?PR?BLE6A20_INIT?ZF_DEVICE_BLE6A20
FFCE2AH   FFCEA9H   000080H   BYTE   INSEG    CODE           ?PR?UART_PRINTF_TEST?COMMAND
FFCEAAH   FFCF28H   00007FH   BYTE   INSEG    CODE           ?PR?SEEKFREE_ASSISTANT_OPEN?MENU
FFCF29H   FFCF9DH   000075H   BYTE   INSEG    CODE           ?PR?IPS200_SHOW_STRING?ZF_DEVICE_IPS200
FFCF9EH   FFD010H   000073H   BYTE   INSEG    CODE           ?PR?IPS200_CLEAR?ZF_DEVICE_IPS200
FFD011H   FFD07BH   00006BH   BYTE   INSEG    CODE           ?PR?IAP_READ_BUFF?ZF_DRIVER_EEPROM
FFD07CH   FFD0E5H   00006AH   BYTE   INSEG    CODE           ?PR?SPI_READ_8BIT_REGISTERS?ZF_DRIVER_SPI
FFD0E6H   FFD14EH   000069H   BYTE   INSEG    CODE           ?PR?SEEKFREE_ASSISTANT_OSCILLOSCOPE_CODE?COMMAND
FFD14FH   FFD1B7H   000069H   BYTE   INSEG    CODE           ?PR?CONSTRAIN_FLOAT?CONTRL
FFD1B8H   FFD21FH   000068H   BYTE   INSEG    CODE           ?PR?IAP_WRITE_BUFF?ZF_DRIVER_EEPROM
FFD220H   FFD285H   000066H   BYTE   INSEG    CODE           ?PR?UART_WRITE_STRING?ZF_DRIVER_UART
FFD286H   FFD2EAH   000065H   BYTE   INSEG    CODE           ?PR?DEBUG_SEND_BUFFER?ZF_COMMON_DEBUG
FFD2EBH   FFD34FH   000065H   BYTE   INSEG    CODE           ?PR?ADC_CONVERT?ZF_DRIVER_ADC
FFD350H   FFD3B4H   000065H   BYTE   INSEG    CODE           ?PR?CONTROL_INIT?CONTRL
FFD3B5H   FFD417H   000063H   BYTE   INSEG    CODE           ?PR?SPI_READ_DAT?ZF_DRIVER_SPI
FFD418H   FFD479H   000062H   BYTE   INSEG    CODE           ?PR?BLE6A20_READ_BUFFER?ZF_DEVICE_BLE6A20
FFD47AH   FFD4D8H   00005FH   BYTE   INSEG    CODE           ?PR?IMU660RA_SELF_CHECK?ZF_DEVICE_IMU660RA
FFD4D9H   FFD537H   00005FH   BYTE   INSEG    CODE           ?PR?ENCODER_TEXT?COMMAND
FFD538H   FFD594H   00005DH   BYTE   INSEG    CODE           ?PR?SYSTEM_DELAY_INIT?ZF_DRIVER_DELAY
FFD595H   FFD5F1H   00005DH   BYTE   INSEG    CODE           ?PR?DISPLAY_VCC?COMMAND
FFD5F2H   FFD64EH   00005DH   BYTE   INSEG    CODE           ?PR?UART_PRINTF?COMMAND
FFD64FH   FFD6AAH   00005CH   BYTE   INSEG    CODE           ?PR?SPI_WRITE_8BIT_REGISTERS?ZF_DRIVER_SPI
FFD6ABH   FFD706H   00005CH   BYTE   INSEG    CODE           ?PR?SET_TASK_MODE?SET_TASK
FFD707H   FFD75FH   000059H   BYTE   INSEG    CODE           ?PR?QUATERNION_INIT?IMU
FFD760H   FFD7B5H   000056H   BYTE   INSEG    CODE           ?PR?SEEKFREE_ASSISTANT_SUM?SEEKFREE_ASSISTANT
FFD7B6H   FFD7D6H   000021H   BYTE   UNIT     CODE           ?C_C51STARTUP
FFD7D7H   FFD807H   000031H   BYTE   UNIT     CODE           ?C_C51STARTUP?2
FFD808H   FFD80AH   000003H   BYTE   UNIT     CODE           ?C_C51STARTUP?3
FFD80BH   FFD85FH   000055H   BYTE   INSEG    CODE           ?PR?UART_RX_INTERRUPT?ZF_DRIVER_UART
FFD860H   FFD8B3H   000054H   BYTE   INSEG    CODE           ?PR?IPS200_SET_REGION?ZF_DEVICE_IPS200
FFD8B4H   FFD907H   000054H   BYTE   INSEG    CODE           ?PR?IMU660RA_GET_GYRO?ZF_DEVICE_IMU660RA
FFD908H   FFD95AH   000053H   BYTE   INSEG    CODE           ?PR?IMU660RA_WRITE_REGISTERS?ZF_DEVICE_IMU660RA
FFD95BH   FFD9A9H   00004FH   BYTE   INSEG    CODE           ?PR?IAP_READ_BYTE?ZF_DRIVER_EEPROM
FFD9AAH   FFD9F8H   00004FH   BYTE   INSEG    CODE           ?PR?IAP_WRITE_BYTE?ZF_DRIVER_EEPROM
FFD9F9H   FFDA47H   00004FH   BYTE   INSEG    CODE           ?PR?IMU_LVBO?IMU
FFDA48H   FFDA95H   00004EH   BYTE   INSEG    CODE           ?PR?DEBUG_READ_BUFFER?ZF_COMMON_DEBUG
FFDA96H   FFDAE3H   00004EH   BYTE   INSEG    CODE           ?PR?TM11_IRQHANDLER?ISR
FFDAE4H   FFDB2FH   00004CH   BYTE   INSEG    CODE           ?PR?ENCODER_INIT?COMMAND
FFDB30H   FFDB76H   000047H   BYTE   INSEG    CODE           ?PR?SPI_WRITE_DAT?ZF_DRIVER_SPI
FFDB77H   FFDBBDH   000047H   BYTE   INSEG    CODE           ?PR?KEY_INTO?KEY
FFDBBEH   FFDC02H   000045H   BYTE   INSEG    CODE           ?PR?ATAN2?_?ATAN2
FFDC03H   FFDC43H   000041H   BYTE   INSEG    CODE           ?PR?ENCODER_INTEGRATE?COMMAND
FFDC44H   FFDC83H   000040H   BYTE   INSEG    CODE           ?PR?FUNCTION_INDUCTANCE_MAX_MIN_SETTING?MENU
FFDC84H   FFDCC2H   00003FH   BYTE   INSEG    CODE           ?PR?SEEKFREE_ASSISTANT_INTERFACE_INIT?SEEKFREE_ASSISTANT_I
                                                             -NTERFACE
L251 LINKER/LOCATER V4.66.93.0                                                        06/12/2025  20:04:03  PAGE 10


FFDCC3H   FFDD00H   00003EH   BYTE   INSEG    CODE           ?PR?TM0_IRQHANDLER?ISR
FFDD01H   FFDD3EH   00003EH   BYTE   INSEG    CODE           ?PR?TM1_IRQHANDLER?ISR
FFDD3FH   FFDD7CH   00003EH   BYTE   INSEG    CODE           ?PR?TM2_IRQHANDLER?ISR
FFDD7DH   FFDDBAH   00003EH   BYTE   INSEG    CODE           ?PR?TM3_IRQHANDLER?ISR
FFDDBBH   FFDDF8H   00003EH   BYTE   INSEG    CODE           ?PR?TM4_IRQHANDLER?ISR
FFDDF9H   FFDE36H   00003EH   BYTE   INSEG    CODE           ?PR?FUNCTION_DUMMY?MENU
FFDE37H   FFDE73H   00003DH   BYTE   INSEG    CODE           ?PR?IMU660RA_READ_REGISTER?ZF_DEVICE_IMU660RA
FFDE74H   FFDEACH   000039H   BYTE   INSEG    CODE           ?PR?DEBUG_INTERRUPR_HANDLER?ZF_COMMON_DEBUG
FFDEADH   FFDEE5H   000039H   BYTE   INSEG    CODE           ?PR?FUNCTION_ADC_TEST?MENU
FFDEE6H   FFDF1DH   000038H   BYTE   INSEG    CODE           ?PR?SOFT_IIC_DELAY?ZF_DRIVER_SOFT_IIC
FFDF1EH   FFDF54H   000037H   BYTE   INSEG    CODE           ?PR?FUNCTION_BUZZER_TEST?MENU
FFDF55H   FFDF89H   000035H   BYTE   INSEG    CODE           ?PR?SPI_WRITE_16BIT?ZF_DRIVER_SPI
FFDF8AH   FFDFBEH   000035H   BYTE   INSEG    CODE           ?PR?ADC_MAIN_INIT?COMMAND
FFDFBFH   FFDFF1H   000033H   BYTE   INSEG    CODE           ?PR?FUNCTION_UART_PRINTF_TEST?MENU
FFDFF2H   FFE024H   000033H   BYTE   INSEG    CODE           ?PR?FUNCTION_KEY_TEST?MENU
FFE025H   FFE057H   000033H   BYTE   INSEG    CODE           ?PR?FUNCTION_IMU_TEST?MENU
FFE058H   FFE08AH   000033H   BYTE   INSEG    CODE           ?PR?FUNCTION_ENCODER_TEST?MENU
FFE08BH   FFE0BBH   000031H   BYTE   INSEG    CODE           ?PR?FIFO_USED?ZF_COMMON_FIFO
FFE0BCH   FFE0EBH   000030H   BYTE   INSEG    CODE           ?PR?FUNCTION_IMAGE_PATH_TEST?MENU
FFE0ECH   FFE119H   00002EH   BYTE   INSEG    CODE           ?PR?SEEKFREE_ASSISTANT_INIT?SEEKFREE_ASSISTANT
FFE11AH   FFE146H   00002DH   BYTE   INSEG    CODE           ?PR?IMU660RA_WRITE_REGISTER?ZF_DEVICE_IMU660RA
FFE147H   FFE171H   00002BH   BYTE   INSEG    CODE           ?PR?SPI_WRITE_8BIT_REGISTER?ZF_DRIVER_SPI
FFE172H   FFE19CH   00002BH   BYTE   INSEG    CODE           ?PR?PIT_HANDLER?COMMAND
FFE19DH   FFE1C6H   00002AH   BYTE   INSEG    CODE           ?PR?BUZZER_TIME?COMMAND
FFE1C7H   FFE1ECH   000026H   BYTE   INSEG    CODE           ?PR?IAP_SET_TPS?ZF_DRIVER_EEPROM
FFE1EDH   FFE212H   000026H   BYTE   INSEG    CODE           ?PR?BLE6A20_CALLBACK?ZF_DEVICE_BLE6A20
FFE213H   FFE237H   000025H   BYTE   INSEG    CODE           ?PR?MEMCPY?_?MEMCPY
FFE238H   FFE257H   000020H   BYTE   INSEG    CODE           ?PR?UART_WRITE_BYTE?ZF_DRIVER_UART
FFE258H   FFE276H   00001FH   BYTE   INSEG    CODE           ?PR?SPEED_DEBUG?CONTRL
FFE277H   FFE28AH   000014H   BYTE   INSEG    CODE           ?PR?CONTROL_UPDATE?CONTRL
FFE28BH   FFE29DH   000013H   BYTE   INSEG    CODE           ?PR?IPS200_SET_DIR?ZF_DEVICE_IPS200
FFE29EH   FFE2B0H   000013H   BYTE   UNIT     CODE           ?PR?STRCPY?_
FFE2B1H   FFE2C2H   000012H   BYTE   INSEG    CODE           ?PR?PUTCHAR?ZF_COMMON_DEBUG
FFE2C3H   FFE2D2H   000010H   BYTE   INSEG    CODE           ?PR?ABS?_?ABS
FFE2D3H   FFE2E0H   00000EH   BYTE   INSEG    CODE           ?PR?STRLEN?_?STRLEN
FFE2E1H   FFE2E7H   000007H   BYTE   INSEG    CODE           ?PR?SPEED_CONTROL?CONTRL
FFE2E8H   FFE87FH   000598H   BYTE   UNIT     HCONST         ?C_INITHDATA
FFE880H   FFED42H   0004C3H   BYTE   UNIT     HCONST         ?HC?MENU
FFED43H   FFF137H   0003F5H   BYTE   UNIT     HCONST         ?HC?COMMAND
FFF138H   FFF337H   000200H   BYTE   UNIT     HCONST         ?HC?ZF_DRIVER_EEPROM
FFF338H   FFF420H   0000E9H   BYTE   UNIT     HCONST         ?HC?IMU
FFF421H   FFF4ECH   0000CCH   BYTE   UNIT     HCONST         ?HC?CONTRL
FFF4EDH   FFF593H   0000A7H   BYTE   UNIT     HCONST         ?HC?ZF_DEVICE_IMU660RA
FFF594H   FFF637H   0000A4H   BYTE   UNIT     HCONST         ?HC?SEEKFREE_ASSISTANT
FFF638H   FFF697H   000060H   BYTE   UNIT     HCONST         ?HC?ZF_DRIVER_PWM
FFF698H   FFF6BFH   000028H   BYTE   UNIT     HCONST         ?HC?KEY
FFF6C0H   FFF6CFH   000010H   BYTE   UNIT     HCONST         ?HC?ZF_COMMON_FUNCTION

* * * * * * * * *   R E M O V E D     S E G M E N T S   * * * * * * * *
   *DEL*:           000140H   BYTE   INSEG    CODE           ?PR?FIFO_CLEAR?ZF_COMMON_FIFO
   *DEL*:           000349H   BYTE   INSEG    CODE           ?PR?FUNC_DOUBLE_TO_STR?ZF_COMMON_FUNCTION
   *DEL*:           00023CH   BYTE   INSEG    CODE           ?PR?FUNC_STR_TO_DOUBLE?ZF_COMMON_FUNCTION
   *DEL*:           000349H   BYTE   INSEG    CODE           ?PR?FUNC_FLOAT_TO_STR?ZF_COMMON_FUNCTION
   *DEL*:           00023CH   BYTE   INSEG    CODE           ?PR?FUNC_STR_TO_FLOAT?ZF_COMMON_FUNCTION
   *DEL*:           000024H   BYTE   INSEG    CODE           ?PR?FUNC_SOFT_DELAY?ZF_COMMON_FUNCTION
   *DEL*:           0008E7H   BYTE   INSEG    CODE           ?PR?ZF_SPRINTF?ZF_COMMON_FUNCTION
   *DEL*:           0000E7H   BYTE   INSEG    CODE           ?PR?FUNC_UINT_TO_STR?ZF_COMMON_FUNCTION
   *DEL*:           00009AH   BYTE   INSEG    CODE           ?PR?FUNC_STR_TO_UINT?ZF_COMMON_FUNCTION
   *DEL*:           000150H   BYTE   INSEG    CODE           ?PR?FUNC_HEX_TO_STR?ZF_COMMON_FUNCTION
   *DEL*:           0001ADH   BYTE   INSEG    CODE           ?PR?FUNC_STR_TO_HEX?ZF_COMMON_FUNCTION
   *DEL*:           000181H   BYTE   INSEG    CODE           ?PR?FUNC_INT_TO_STR?ZF_COMMON_FUNCTION
   *DEL*:           000114H   BYTE   INSEG    CODE           ?PR?FUNC_STR_TO_INT?ZF_COMMON_FUNCTION
   *DEL*:           0000A6H   BYTE   INSEG    CODE           ?PR?FUNC_GET_GREATEST_COMMON_DIVISOR?ZF_COMMON_FUNCTION
   *DEL*:           0000EDH   BYTE   INSEG    CODE           ?PR?PRINTF_REVERSE_ORDER?ZF_COMMON_FUNCTION
   *DEL*:           000003H   BYTE   INSEG    CODE           ?PR?INTERRUPT_GLOBAL_DISABLE?ZF_COMMON_INTERRUPT
L251 LINKER/LOCATER V4.66.93.0                                                        06/12/2025  20:04:03  PAGE 11


   *DEL*:           000108H   BYTE   INSEG    CODE           ?PR?INTERRUPT_SET_PRIORITY?ZF_COMMON_INTERRUPT
   *DEL*:           000078H   BYTE   INSEG    CODE           ?PR?ADC_MEAN_FILTER_CONVERT?ZF_DRIVER_ADC
   *DEL*:           000088H   BYTE   INSEG    CODE           ?PR?SYSTEM_DELAY_US?ZF_DRIVER_DELAY
   *DEL*:           000004H   BYTE   INSEG    CODE           ?PR?IAP_IDLE?ZF_DRIVER_EEPROM
   *DEL*:           000104H   BYTE   INSEG    CODE           ?PR?EXTERN_IAP_WRITE_BUFF?ZF_DRIVER_EEPROM
   *DEL*:           00000DH   BYTE   INSEG    CODE           ?PR?IAP_GET_CMD_STATE?ZF_DRIVER_EEPROM
   *DEL*:           000029H   BYTE   INSEG    CODE           ?PR?GPIO_TOGGLE_LEVEL?ZF_DRIVER_GPIO
   *DEL*:           000273H   BYTE   INSEG    CODE           ?PR?PWM_SET_FREQ?ZF_DRIVER_PWM
   *DEL*:           000092H   BYTE   INSEG    CODE           ?PR?SOFT_IIC_STOP?ZF_DRIVER_SOFT_IIC
   *DEL*:           00006EH   BYTE   INSEG    CODE           ?PR?SOFT_IIC_WRITE_8BIT_REGISTER?ZF_DRIVER_SOFT_IIC
   *DEL*:           000134H   BYTE   INSEG    CODE           ?PR?SOFT_IIC_READ_16BIT_REGISTERS?ZF_DRIVER_SOFT_IIC
   *DEL*:           0000ACH   BYTE   INSEG    CODE           ?PR?SOFT_IIC_SCCB_READ_REGISTER?ZF_DRIVER_SOFT_IIC
   *DEL*:           0000EBH   BYTE   INSEG    CODE           ?PR?SOFT_IIC_READ_16BIT_REGISTER?ZF_DRIVER_SOFT_IIC
   *DEL*:           00017BH   BYTE   INSEG    CODE           ?PR?SOFT_IIC_TRANSFER_16BIT_ARRAY?ZF_DRIVER_SOFT_IIC
   *DEL*:           0000DAH   BYTE   INSEG    CODE           ?PR?SOFT_IIC_WRITE_16BIT_REGISTERS?ZF_DRIVER_SOFT_IIC
   *DEL*:           00006EH   BYTE   INSEG    CODE           ?PR?SOFT_IIC_SCCB_WRITE_REGISTER?ZF_DRIVER_SOFT_IIC
   *DEL*:           000060H   BYTE   INSEG    CODE           ?PR?SOFT_IIC_READ_8BIT?ZF_DRIVER_SOFT_IIC
   *DEL*:           0000ACH   BYTE   INSEG    CODE           ?PR?SOFT_IIC_READ_8BIT_ARRAY?ZF_DRIVER_SOFT_IIC
   *DEL*:           0000AEH   BYTE   INSEG    CODE           ?PR?SOFT_IIC_WRITE_16BIT_REGISTER?ZF_DRIVER_SOFT_IIC
   *DEL*:           000057H   BYTE   INSEG    CODE           ?PR?SOFT_IIC_WRITE_8BIT?ZF_DRIVER_SOFT_IIC
   *DEL*:           00008AH   BYTE   INSEG    CODE           ?PR?SOFT_IIC_WRITE_8BIT_ARRAY?ZF_DRIVER_SOFT_IIC
   *DEL*:           00010AH   BYTE   INSEG    CODE           ?PR?SOFT_IIC_READ_DATA?ZF_DRIVER_SOFT_IIC
   *DEL*:           00008BH   BYTE   INSEG    CODE           ?PR?SOFT_IIC_READ_16BIT?ZF_DRIVER_SOFT_IIC
   *DEL*:           0000C3H   BYTE   INSEG    CODE           ?PR?SOFT_IIC_SEND_DATA?ZF_DRIVER_SOFT_IIC
   *DEL*:           0000DEH   BYTE   INSEG    CODE           ?PR?SOFT_IIC_READ_16BIT_ARRAY?ZF_DRIVER_SOFT_IIC
   *DEL*:           00007DH   BYTE   INSEG    CODE           ?PR?SOFT_IIC_START?ZF_DRIVER_SOFT_IIC
   *DEL*:           000094H   BYTE   INSEG    CODE           ?PR?SOFT_IIC_INIT?ZF_DRIVER_SOFT_IIC
   *DEL*:           0000EBH   BYTE   INSEG    CODE           ?PR?SOFT_IIC_READ_8BIT_REGISTERS?ZF_DRIVER_SOFT_IIC
   *DEL*:           000078H   BYTE   INSEG    CODE           ?PR?SOFT_IIC_WRITE_16BIT?ZF_DRIVER_SOFT_IIC
   *DEL*:           0000AEH   BYTE   INSEG    CODE           ?PR?SOFT_IIC_WRITE_16BIT_ARRAY?ZF_DRIVER_SOFT_IIC
   *DEL*:           0000ADH   BYTE   INSEG    CODE           ?PR?SOFT_IIC_SEND_ACK?ZF_DRIVER_SOFT_IIC
   *DEL*:           00009FH   BYTE   INSEG    CODE           ?PR?SOFT_IIC_READ_8BIT_REGISTER?ZF_DRIVER_SOFT_IIC
   *DEL*:           000125H   BYTE   INSEG    CODE           ?PR?SOFT_IIC_TRANSFER_8BIT_ARRAY?ZF_DRIVER_SOFT_IIC
   *DEL*:           00009FH   BYTE   INSEG    CODE           ?PR?SOFT_IIC_WRITE_8BIT_REGISTERS?ZF_DRIVER_SOFT_IIC
   *DEL*:           0000B2H   BYTE   INSEG    CODE           ?PR?SPI_READ_16BIT_REGISTERS?ZF_DRIVER_SPI
   *DEL*:           000073H   BYTE   INSEG    CODE           ?PR?SPI_READ_16BIT_REGISTER?ZF_DRIVER_SPI
   *DEL*:           000100H   BYTE   INSEG    CODE           ?PR?SPI_TRANSFER_16BIT?ZF_DRIVER_SPI
   *DEL*:           00007EH   BYTE   INSEG    CODE           ?PR?SPI_WRITE_16BIT_REGISTERS?ZF_DRIVER_SPI
   *DEL*:           000011H   BYTE   INSEG    CODE           ?PR?SPI_READ_8BIT?ZF_DRIVER_SPI
   *DEL*:           000059H   BYTE   INSEG    CODE           ?PR?SPI_READ_8BIT_ARRAY?ZF_DRIVER_SPI
   *DEL*:           000063H   BYTE   INSEG    CODE           ?PR?SPI_WRITE_16BIT_REGISTER?ZF_DRIVER_SPI
   *DEL*:           00004BH   BYTE   INSEG    CODE           ?PR?SPI_WRITE_8BIT_ARRAY?ZF_DRIVER_SPI
   *DEL*:           000045H   BYTE   INSEG    CODE           ?PR?SPI_READ_16BIT?ZF_DRIVER_SPI
   *DEL*:           000084H   BYTE   INSEG    CODE           ?PR?SPI_READ_16BIT_ARRAY?ZF_DRIVER_SPI
   *DEL*:           00006BH   BYTE   INSEG    CODE           ?PR?SPI_WRITE_16BIT_ARRAY?ZF_DRIVER_SPI
   *DEL*:           000022H   BYTE   INSEG    CODE           ?PR?SPI_READ_8BIT_REGISTER?ZF_DRIVER_SPI
   *DEL*:           0000A0H   BYTE   INSEG    CODE           ?PR?SPI_TRANSFER_8BIT?ZF_DRIVER_SPI
   *DEL*:           000079H   BYTE   INSEG    CODE           ?PR?TIMER_FUNCITON_CHECK?ZF_DRIVER_TIMER
   *DEL*:           000067H   BYTE   INSEG    CODE           ?PR?UART_READ_BYTE?ZF_DRIVER_UART
   *DEL*:           000079H   BYTE   INSEG    CODE           ?PR?UART_FUNCITON_CHECK?ZF_DRIVER_UART
   *DEL*:           00017AH   BYTE   INSEG    CODE           ?PR?IPS200_SHOW_FLOAT?ZF_DEVICE_IPS200
   *DEL*:           000039H   BYTE   INSEG    CODE           ?PR?IPS200_DRAW_POINT?ZF_DEVICE_IPS200
   *DEL*:           0000C5H   BYTE   INSEG    CODE           ?PR?IPS200_SHOW_UINT16?ZF_DEVICE_IPS200
   *DEL*:           0000D5H   BYTE   INSEG    CODE           ?PR?IPS200_SHOW_INT8?ZF_DEVICE_IPS200
   *DEL*:           000055H   BYTE   INSEG    CODE           ?PR?BLE6A20_SEND_BYTE?ZF_DEVICE_BLE6A20
   *DEL*:           000054H   BYTE   INSEG    CODE           ?PR?IMU660RA_GET_ACC?ZF_DEVICE_IMU660RA
   *DEL*:           000421H   BYTE   INSEG    CODE           ?PR?SEEKFREE_ASSISTANT_CAMERA_BOUNDARY_CONFIG?SEEKFREE_ASS
                                                             -ISTANT
   *DEL*:           000125H   BYTE   INSEG    CODE           ?PR?SEEKFREE_ASSISTANT_CAMERA_DOT_SEND?SEEKFREE_ASSISTANT
   *DEL*:           000181H   BYTE   INSEG    CODE           ?PR?SEEKFREE_ASSISTANT_OSCILLOSCOPE_SEND?SEEKFREE_ASSISTAN
                                                             -T
   *DEL*:           000061H   BYTE   INSEG    CODE           ?PR?SEEKFREE_ASSISTANT_CAMERA_INFORMATION_CONFIG?SEEKFREE_
                                                             -ASSISTANT
   *DEL*:           000156H   BYTE   INSEG    CODE           ?PR?SEEKFREE_ASSISTANT_CAMERA_DATA_SEND?SEEKFREE_ASSISTANT
   *DEL*:           00003FH   BYTE   INSEG    CODE           ?PR?SEEKFREE_ASSISTANT_CAMERA_SEND?SEEKFREE_ASSISTANT
L251 LINKER/LOCATER V4.66.93.0                                                        06/12/2025  20:04:03  PAGE 12


   *DEL*:           000010H   BYTE   INSEG    CODE           ?PR?HALL_INIT?COMMAND
   *DEL*:           000032H   BYTE   INSEG    CODE           ?PR?HALL_TEXT?COMMAND
   *DEL*:           000010H   BYTE   INSEG    CODE           ?PR?IPS_TEXT?COMMAND
   *DEL*:           00002EH   BYTE   INSEG    CODE           ?PR?KEY1_CAN?KEY
   *DEL*:           00002EH   BYTE   INSEG    CODE           ?PR?KEY2_CAN?KEY
   *DEL*:           00002EH   BYTE   INSEG    CODE           ?PR?KEY3_CAN?KEY
   *DEL*:           00002EH   BYTE   INSEG    CODE           ?PR?KEY4_CAN?KEY
   *DEL*:           00002EH   BYTE   INSEG    CODE           ?PR?KEY5_CAN?KEY
   *DEL*:           000033H   BYTE   INSEG    CODE           ?PR?FUNCTION_IPS_TEST?MENU
   *DEL*:           0000C4H   BYTE   INSEG    CODE           ?PR?ENCODER_INS?IMU
   *DEL*:           0000EBH   BYTE   INSEG    CODE           ?PR?IMU660RA_TEXT?IMU
   *DEL*:           0000D3H   BYTE   INSEG    CODE           ?PR?ENCODER_INS_INFILE?IMU
   *DEL*:           000025H   BYTE   INSEG    CODE           ?PR?GET_QUATERNION?IMU
   *DEL*:           000001H   BYTE   INSEG    CODE           ?PR?CONTROL_TEST?CONTRL
   *DEL*:           0000A9H   BYTE   INSEG    CODE           ?PR?INDUCTANCE_NORMALIZATION_MAX?CONTRL
   *DEL*:           000471H   BYTE   INSEG    CODE           ?PR?IMAGE_PATH?IMAGE
   *DEL*:           00001AH   BYTE   INSEG    CODE           ?PR?MEMSET?_?MEMSET



OVERLAY MAP OF MODULE:   .\out_file\SEEKFREE (ai8051u_isr)


FUNCTION/MODULE                               XDATA_GROUP
--> CALLED FUNCTION/MODULE                    START  STOP
=========================================================
?C_C51STARTUP                                 ----- -----

*** NEW ROOT ********************************

?C_C51STARTUP?3                               ----- -----
  +--> main/main

main/main                                     ----- -----
  +--> clock_init/zf_common_clock
  +--> debug_init/zf_common_debug
  +--> to_init/command
  +--> menu_run/menu
  +--> display_vcc/command
  +--> encoder_integrate/command
  +--> seekfree_assistant_oscilloscope_code/command
  +--> button_entry/key
  +--> adc_main_read/command
  +--> inductance_difference_ratio_sum/contrl

clock_init/zf_common_clock                    ----- -----
  +--> system_delay_init/zf_driver_delay
  +--> interrupt_global_enable/zf_common_interrupt

system_delay_init/zf_driver_delay             ----- -----
  +--> ?C?SLDIV/?C?SLDIV

?C?SLDIV/?C?SLDIV                             ----- -----
  +--> ?C?ULIDIV/?C?ULDIV

?C?ULIDIV/?C?ULDIV                            ----- -----

interrupt_global_enable/zf_common_interr+     ----- -----
... upt

debug_init/zf_common_debug                    ----- -----
  +--> uart_init/zf_driver_uart
  +--> fifo_init/zf_common_fifo
  +--> uart_rx_interrupt/zf_driver_uart
  +--> debug_interrupr_handler/zf_common_debug
L251 LINKER/LOCATER V4.66.93.0                                                        06/12/2025  20:04:03  PAGE 13



uart_init/zf_driver_uart                      ----- -----
  +--> gpio_init/zf_driver_gpio
  +--> ?C?ULIDIV/?C?ULDIV
  +--> uart_dma_init/zf_driver_uart

gpio_init/zf_driver_gpio                      ----- -----
  +--> gpio_set_dir/zf_driver_gpio
  +--> gpio_set_mode/zf_driver_gpio
  +--> gpio_set_impedance/zf_driver_gpio
  +--> gpio_set_level/zf_driver_gpio

gpio_set_dir/zf_driver_gpio                   ----- -----

gpio_set_mode/zf_driver_gpio                  ----- -----

gpio_set_impedance/zf_driver_gpio             ----- -----

gpio_set_level/zf_driver_gpio                 ----- -----

uart_dma_init/zf_driver_uart                  ----- -----

fifo_init/zf_common_fifo                      ----- -----

uart_rx_interrupt/zf_driver_uart              ----- -----

debug_interrupr_handler/zf_common_debug       ----- -----
  +--> uart_query_byte/zf_driver_uart
  +--> fifo_write_buffer/zf_common_fifo

uart_query_byte/zf_driver_uart                ----- -----
  +--> uart_rx_start_buff/zf_driver_uart

uart_rx_start_buff/zf_driver_uart             ----- -----

fifo_write_buffer/zf_common_fifo              ----- -----
  +--> memcpy?_/memcpy
  +--> fifo_head_offset/zf_common_fifo

memcpy?_/memcpy                               ----- -----

fifo_head_offset/zf_common_fifo               ----- -----

to_init/command                               ----- -----
  +--> ips200_init/zf_device_ips200
  +--> key_into/key
  +--> encoder_init/command
  +--> menu_init/menu
  +--> menu_display/menu
  +--> gpio_init/zf_driver_gpio
  +--> adc_main_init/command
  +--> system_delay_ms/zf_driver_delay
  +--> PRINTF/PRINTF
  +--> ble6a20_init/zf_device_ble6a20
  +--> imu660ra_init/zf_device_imu660ra
  +--> quaternion_init/IMU
  +--> gyro_calibrate/IMU
  +--> seekfree_assistant_oscilloscope_init/command
  +--> eeprom_init_code/command
  +--> PidInit/contrl
  +--> control_init/contrl
  +--> ?C?SLDIV/?C?SLDIV
  +--> pit_init/zf_driver_pit
  +--> set_task_mode/set_task
  +--> imu_isr/IMU
L251 LINKER/LOCATER V4.66.93.0                                                        06/12/2025  20:04:03  PAGE 14



ips200_init/zf_device_ips200                  ----- -----
  +--> spi_init/zf_driver_spi
  +--> ips200_set_dir/zf_device_ips200
  +--> ips200_set_color/zf_device_ips200
  +--> system_delay_ms/zf_driver_delay
  +--> ips200_write_index/zf_device_ips200
  +--> spi_write_8bit/zf_driver_spi
  +--> ips200_clear/zf_device_ips200

spi_init/zf_driver_spi                        ----- -----
  +--> gpio_init/zf_driver_gpio
  +--> gpio_set_level_speed/zf_driver_gpio
  +--> ?C?ULIDIV/?C?ULDIV

gpio_set_level_speed/zf_driver_gpio           ----- -----

ips200_set_dir/zf_device_ips200               ----- -----

ips200_set_color/zf_device_ips200             ----- -----

system_delay_ms/zf_driver_delay               ----- -----

ips200_write_index/zf_device_ips200           ----- -----
  +--> spi_write_8bit/zf_driver_spi

spi_write_8bit/zf_driver_spi                  ----- -----
  +--> spi_write_dat/zf_driver_spi

spi_write_dat/zf_driver_spi                   ----- -----

ips200_clear/zf_device_ips200                 ----- -----
  +--> ips200_set_region/zf_device_ips200
  +--> spi_write_16bit/zf_driver_spi

ips200_set_region/zf_device_ips200            ----- -----
  +--> ips200_write_index/zf_device_ips200
  +--> spi_write_16bit/zf_driver_spi

spi_write_16bit/zf_driver_spi                 ----- -----
  +--> spi_write_dat/zf_driver_spi

key_into/key                                  ----- -----
  +--> gpio_init/zf_driver_gpio

encoder_init/command                          ----- -----
  +--> encoder_dir_init/zf_driver_encoder
  +--> pit_handler/command
  +--> ?C?SLDIV/?C?SLDIV
  +--> pit_init/zf_driver_pit

encoder_dir_init/zf_driver_encoder            ----- -----
  +--> gpio_init/zf_driver_gpio

pit_handler/command                           ----- -----
  +--> encoder_get_count/zf_driver_encoder
  +--> abs?_/ABS
  +--> encoder_clear_count/zf_driver_encoder

encoder_get_count/zf_driver_encoder           ----- -----
  +--> gpio_get_level/zf_driver_gpio

gpio_get_level/zf_driver_gpio                 ----- -----

abs?_/ABS                                     ----- -----
L251 LINKER/LOCATER V4.66.93.0                                                        06/12/2025  20:04:03  PAGE 15



encoder_clear_count/zf_driver_encoder         ----- -----

pit_init/zf_driver_pit                        ----- -----
  +--> ?C?ULIDIV/?C?ULDIV

menu_init/menu                                ----- -----
  +--> STRCPY?_/STRCPY?_
  +--> function_sensor_calibration/menu
  +--> seekfree_assistant_open/menu
  +--> function_inductance_max_min_setting/menu
  +--> function_speed_setting/menu
  +--> function_dummy/menu
  +--> function_reset_pid/menu
  +--> function_angle_pid_setting/menu
  +--> function_angle_speed_pid_setting/menu
  +--> function_left_motor_pid_setting/menu
  +--> function_right_motor_pid_setting/menu
  +--> function_key_test/menu
  +--> function_adc_test/menu
  +--> function_encoder_test/menu
  +--> function_imu_test/menu
  +--> function_buzzer_test/menu
  +--> function_uart_printf_test/menu
  +--> function_image_path_test/menu
  +--> function_inductance_max_min_show/menu

STRCPY?_/STRCPY?_                             ----- -----

function_sensor_calibration/menu              ----- -----
  +--> ips200_clear/zf_device_ips200
  +--> ips200_show_string/zf_device_ips200
  +--> quaternion_init/IMU
  +--> gyro_calibrate/IMU
  +--> button_entry/key

ips200_show_string/zf_device_ips200           ----- -----
  +--> ips200_show_char/zf_device_ips200

ips200_show_char/zf_device_ips200             ----- -----
  +--> ips200_set_region/zf_device_ips200
  +--> spi_write_16bit/zf_driver_spi

quaternion_init/IMU                           ----- -----

gyro_calibrate/IMU                            ----- -----
  +--> ips200_clear/zf_device_ips200
  +--> ips200_show_string/zf_device_ips200
  +--> imu660ra_get_gyro/zf_device_imu660ra
  +--> SPRINTF/SPRINTF
  +--> system_delay_ms/zf_driver_delay

imu660ra_get_gyro/zf_device_imu660ra          ----- -----
  +--> imu660ra_read_registers/zf_device_imu660ra

imu660ra_read_registers/zf_device_imu660+     ----- -----
... ra
  +--> gpio_set_level/zf_driver_gpio
  +--> spi_read_8bit_registers/zf_driver_spi

spi_read_8bit_registers/zf_driver_spi         ----- -----
  +--> spi_write_dat/zf_driver_spi
  +--> spi_read_dat/zf_driver_spi

spi_read_dat/zf_driver_spi                    ----- -----
L251 LINKER/LOCATER V4.66.93.0                                                        06/12/2025  20:04:03  PAGE 16



SPRINTF/SPRINTF                               2820H 2847H
  +--> OUT/SPRINTF

OUT/SPRINTF                                   ----- -----
  +--> PUTCH/SPRINTF

PUTCH/SPRINTF                                 ----- -----

button_entry/key                              ----- -----
  +--> gpio_get_level/zf_driver_gpio

seekfree_assistant_open/menu                  ----- -----
  +--> ips200_clear/zf_device_ips200
  +--> button_entry/key
  +--> ips200_show_string/zf_device_ips200
  +--> SPRINTF/SPRINTF
  +--> system_delay_ms/zf_driver_delay

function_inductance_max_min_setting/menu      ----- -----
  +--> ips200_clear/zf_device_ips200
  +--> button_entry/key
  +--> inductance_judgment/contrl
  +--> system_delay_ms/zf_driver_delay
  +--> eeprom_write_inductance_max_min/command

inductance_judgment/contrl                    ----- -----
  +--> ips200_show_string/zf_device_ips200
  +--> SPRINTF/SPRINTF

eeprom_write_inductance_max_min/command       ----- -----
  +--> iap_write_buff/zf_driver_eeprom

iap_write_buff/zf_driver_eeprom               ----- -----
  +--> iap_write_byte/zf_driver_eeprom

iap_write_byte/zf_driver_eeprom               ----- -----
  +--> eeprom_trig/zf_driver_eeprom

eeprom_trig/zf_driver_eeprom                  ----- -----

function_speed_setting/menu                   ----- -----
  +--> ips200_clear/zf_device_ips200
  +--> ips200_show_string/zf_device_ips200
  +--> ips200_show_int16/zf_device_ips200
  +--> button_entry/key

ips200_show_int16/zf_device_ips200            ----- -----
  +--> ips200_show_char/zf_device_ips200

function_dummy/menu                           ----- -----
  +--> ips200_clear/zf_device_ips200
  +--> ips200_show_string/zf_device_ips200

function_reset_pid/menu                       ----- -----
  +--> ips200_clear/zf_device_ips200
  +--> ips200_show_string/zf_device_ips200
  +--> ips200_set_color/zf_device_ips200
  +--> button_entry/key
  +--> eeprom_erase/command
  +--> PidInit/contrl
  +--> system_delay_ms/zf_driver_delay

eeprom_erase/command                          ----- -----
  +--> iap_erase_page/zf_driver_eeprom
L251 LINKER/LOCATER V4.66.93.0                                                        06/12/2025  20:04:03  PAGE 17



iap_erase_page/zf_driver_eeprom               ----- -----
  +--> eeprom_trig/zf_driver_eeprom
  +--> system_delay_ms/zf_driver_delay

PidInit/contrl                                ----- -----

function_angle_pid_setting/menu               ----- -----
  +--> STRCMP?_/STRCMP?_
  +--> ips200_clear/zf_device_ips200
  +--> ips200_show_string/zf_device_ips200
  +--> SPRINTF/SPRINTF
  +--> button_entry/key
  +--> PidInit/contrl
  +--> eeprom_write/command
  +--> system_delay_ms/zf_driver_delay

STRCMP?_/STRCMP?_                             ----- -----

eeprom_write/command                          ----- -----
  +--> iap_write_buff/zf_driver_eeprom

function_angle_speed_pid_setting/menu         ----- -----
  +--> STRCMP?_/STRCMP?_
  +--> ips200_clear/zf_device_ips200
  +--> ips200_show_string/zf_device_ips200
  +--> SPRINTF/SPRINTF
  +--> button_entry/key
  +--> PidInit/contrl
  +--> eeprom_write/command
  +--> system_delay_ms/zf_driver_delay

function_left_motor_pid_setting/menu          ----- -----
  +--> STRCMP?_/STRCMP?_
  +--> ips200_clear/zf_device_ips200
  +--> ips200_show_string/zf_device_ips200
  +--> SPRINTF/SPRINTF
  +--> button_entry/key
  +--> PidInit/contrl
  +--> eeprom_write/command
  +--> system_delay_ms/zf_driver_delay

function_right_motor_pid_setting/menu         ----- -----
  +--> STRCMP?_/STRCMP?_
  +--> ips200_clear/zf_device_ips200
  +--> ips200_show_string/zf_device_ips200
  +--> SPRINTF/SPRINTF
  +--> button_entry/key
  +--> PidInit/contrl
  +--> eeprom_write/command
  +--> system_delay_ms/zf_driver_delay

function_key_test/menu                        ----- -----
  +--> ips200_clear/zf_device_ips200
  +--> button_entry/key
  +--> key_text/key
  +--> system_delay_ms/zf_driver_delay

key_text/key                                  ----- -----
  +--> button_entry/key
  +--> ips200_show_uint8/zf_device_ips200
  +--> ips200_show_string/zf_device_ips200

ips200_show_uint8/zf_device_ips200            ----- -----
  +--> ips200_show_char/zf_device_ips200
L251 LINKER/LOCATER V4.66.93.0                                                        06/12/2025  20:04:03  PAGE 18



function_adc_test/menu                        ----- -----
  +--> ips200_clear/zf_device_ips200
  +--> button_entry/key
  +--> adc_main_read/command
  +--> inductance_difference_ratio_sum/contrl
  +--> adc_text/command
  +--> system_delay_ms/zf_driver_delay

adc_main_read/command                         ----- -----
  +--> adc_convert/zf_driver_adc

adc_convert/zf_driver_adc                     ----- -----

inductance_difference_ratio_sum/contrl        ----- -----

adc_text/command                              ----- -----
  +--> SPRINTF/SPRINTF
  +--> ips200_show_string/zf_device_ips200

function_encoder_test/menu                    ----- -----
  +--> ips200_clear/zf_device_ips200
  +--> button_entry/key
  +--> encoder_text/command
  +--> system_delay_ms/zf_driver_delay

encoder_text/command                          ----- -----
  +--> SPRINTF/SPRINTF
  +--> ips200_show_string/zf_device_ips200

function_imu_test/menu                        ----- -----
  +--> ips200_clear/zf_device_ips200
  +--> button_entry/key
  +--> quaternion_display/IMU
  +--> system_delay_ms/zf_driver_delay

quaternion_display/IMU                        ----- -----
  +--> SPRINTF/SPRINTF
  +--> ips200_show_string/zf_device_ips200

function_buzzer_test/menu                     ----- -----
  +--> ips200_clear/zf_device_ips200
  +--> button_entry/key
  +--> buzzer_time/command
  +--> system_delay_ms/zf_driver_delay

buzzer_time/command                           ----- -----
  +--> gpio_set_level/zf_driver_gpio
  +--> system_delay_ms/zf_driver_delay

function_uart_printf_test/menu                ----- -----
  +--> ips200_clear/zf_device_ips200
  +--> button_entry/key
  +--> uart_printf_test/command
  +--> system_delay_ms/zf_driver_delay

uart_printf_test/command                      ----- -----
  +--> uart_printf/command
  +--> ble6a20_read_buffer/zf_device_ble6a20
  +--> system_delay_ms/zf_driver_delay

uart_printf/command                           ----- -----
  +--> VSPRINTF/VSPRINTF
  +--> uart_write_string/zf_driver_uart

L251 LINKER/LOCATER V4.66.93.0                                                        06/12/2025  20:04:03  PAGE 19


VSPRINTF/VSPRINTF                             2820H 2823H
  +--> OUT/VSPRINTF

OUT/VSPRINTF                                  ----- -----
  +--> PUTCH/VSPRINTF

PUTCH/VSPRINTF                                ----- -----

uart_write_string/zf_driver_uart              ----- -----
  +--> strlen?_/STRLEN
  +--> memcpy?_/memcpy
  +--> uart_write_buffer/zf_driver_uart

strlen?_/STRLEN                               ----- -----

uart_write_buffer/zf_driver_uart              ----- -----

ble6a20_read_buffer/zf_device_ble6a20         ----- -----
  +--> fifo_read_buffer/zf_common_fifo

fifo_read_buffer/zf_common_fifo               ----- -----
  +--> fifo_used/zf_common_fifo
  +--> memcpy?_/memcpy
  +--> fifo_end_offset/zf_common_fifo

fifo_used/zf_common_fifo                      ----- -----

fifo_end_offset/zf_common_fifo                ----- -----

function_image_path_test/menu                 ----- -----
  +--> ips200_clear/zf_device_ips200
  +--> button_entry/key
  +--> system_delay_ms/zf_driver_delay

function_inductance_max_min_show/menu         ----- -----
  +--> ips200_clear/zf_device_ips200
  +--> SPRINTF/SPRINTF
  +--> ips200_show_string/zf_device_ips200
  +--> button_entry/key
  +--> system_delay_ms/zf_driver_delay

menu_display/menu                             ----- -----
  +--> ips200_clear/zf_device_ips200
  +--> ips200_show_string/zf_device_ips200
  +--> ips200_set_color/zf_device_ips200

adc_main_init/command                         ----- -----
  +--> adc_init/zf_driver_adc

adc_init/zf_driver_adc                        ----- -----

PRINTF/PRINTF                                 2820H 2847H
  +--> OUT/PRINTF

OUT/PRINTF                                    ----- -----
  +--> PUTCH/PRINTF

PUTCH/PRINTF                                  ----- -----
  +--> putchar/zf_common_debug
  +--> OUT/PRINTF

putchar/zf_common_debug                       ----- -----
  +--> uart_write_byte/zf_driver_uart

uart_write_byte/zf_driver_uart                ----- -----
L251 LINKER/LOCATER V4.66.93.0                                                        06/12/2025  20:04:03  PAGE 20


  +--> uart_write_buffer/zf_driver_uart

ble6a20_init/zf_device_ble6a20                ----- -----
  +--> system_delay_ms/zf_driver_delay
  +--> ble6a20_callback/zf_device_ble6a20
  +--> set_wireless_type/zf_device_type
  +--> fifo_init/zf_common_fifo
  +--> gpio_init/zf_driver_gpio
  +--> uart_init/zf_driver_uart
  +--> uart_rx_interrupt/zf_driver_uart

ble6a20_callback/zf_device_ble6a20            ----- -----
  +--> fifo_write_buffer/zf_common_fifo

set_wireless_type/zf_device_type              ----- -----

imu660ra_init/zf_device_imu660ra              ----- -----
  +--> system_delay_ms/zf_driver_delay
  +--> spi_init/zf_driver_spi
  +--> gpio_init/zf_driver_gpio
  +--> imu660ra_self_check/zf_device_imu660ra
  +--> PRINTF/PRINTF
  +--> imu660ra_write_register/zf_device_imu660ra
  +--> imu660ra_write_registers/zf_device_imu660ra
  +--> imu660ra_read_register/zf_device_imu660ra

imu660ra_self_check/zf_device_imu660ra        ----- -----
  +--> imu660ra_read_register/zf_device_imu660ra
  +--> PRINTF/PRINTF
  +--> system_delay_ms/zf_driver_delay

imu660ra_read_register/zf_device_imu660r+     ----- -----
... a
  +--> gpio_set_level/zf_driver_gpio
  +--> spi_read_8bit_registers/zf_driver_spi

imu660ra_write_register/zf_device_imu660+     ----- -----
... ra
  +--> gpio_set_level/zf_driver_gpio
  +--> spi_write_8bit_register/zf_driver_spi

spi_write_8bit_register/zf_driver_spi         ----- -----
  +--> spi_write_dat/zf_driver_spi

imu660ra_write_registers/zf_device_imu66+     ----- -----
... 0ra
  +--> gpio_set_level/zf_driver_gpio
  +--> spi_write_8bit_registers/zf_driver_spi

spi_write_8bit_registers/zf_driver_spi        ----- -----
  +--> spi_write_dat/zf_driver_spi

seekfree_assistant_oscilloscope_init/com+     ----- -----
... mand
  +--> seekfree_assistant_init/seekfree_assistant
  +--> seekfree_assistant_interface_init/seekfree_assistant_interface

seekfree_assistant_init/seekfree_assista+     ----- -----
... nt
  +--> fifo_init/zf_common_fifo

seekfree_assistant_interface_init/seekfr+     ----- -----
... ee_assistant_interface
  +--> debug_send_buffer/zf_common_debug
  +--> debug_read_buffer/zf_common_debug
L251 LINKER/LOCATER V4.66.93.0                                                        06/12/2025  20:04:03  PAGE 21


  +--> ble6a20_send_buffer/zf_device_ble6a20
  +--> ble6a20_read_buffer/zf_device_ble6a20

debug_send_buffer/zf_common_debug             ----- -----
  +--> uart_write_buffer/zf_driver_uart

debug_read_buffer/zf_common_debug             ----- -----
  +--> fifo_read_buffer/zf_common_fifo

ble6a20_send_buffer/zf_device_ble6a20         ----- -----
  +--> gpio_get_level/zf_driver_gpio
  +--> uart_write_buffer/zf_driver_uart
  +--> system_delay_ms/zf_driver_delay

eeprom_init_code/command                      ----- -----
  +--> iap_init/zf_driver_eeprom
  +--> iap_read_buff/zf_driver_eeprom
  +--> iap_erase_page/zf_driver_eeprom
  +--> eeprom_write/command
  +--> eeprom_write_inductance_max_min/command
  +--> eeprom_read_inductance_max_min/command

iap_init/zf_driver_eeprom                     ----- -----
  +--> iap_set_tps/zf_driver_eeprom

iap_set_tps/zf_driver_eeprom                  ----- -----
  +--> ?C?SLDIV/?C?SLDIV

iap_read_buff/zf_driver_eeprom                ----- -----
  +--> iap_read_byte/zf_driver_eeprom

iap_read_byte/zf_driver_eeprom                ----- -----
  +--> eeprom_trig/zf_driver_eeprom

eeprom_read_inductance_max_min/command        ----- -----
  +--> iap_read_buff/zf_driver_eeprom

control_init/contrl                           ----- -----
  +--> pwm_init/zf_driver_pwm

pwm_init/zf_driver_pwm                        ----- -----
  +--> gpio_init/zf_driver_gpio
  +--> ?C?ULIDIV/?C?ULDIV

set_task_mode/set_task                        ----- -----

imu_isr/IMU                                   ----- -----
  +--> quaternion_update/IMU

quaternion_update/IMU                         ----- -----
  +--> imu660ra_get_gyro/zf_device_imu660ra
  +--> IMU_lvbo/IMU
  +--> quat_normalize/IMU
  +--> quaternion_to_euler/IMU

IMU_lvbo/IMU                                  ----- -----

quat_normalize/IMU                            ----- -----

quaternion_to_euler/IMU                       ----- -----
  +--> atan2?_/atan2

atan2?_/atan2                                 ----- -----

menu_run/menu                                 ----- -----
L251 LINKER/LOCATER V4.66.93.0                                                        06/12/2025  20:04:03  PAGE 22


  +--> menu_display/menu
  +--> menu_process_buttons/menu

menu_process_buttons/menu                     ----- -----
  +--> menu_display/menu
  +--> STRCMP?_/STRCMP?_

display_vcc/command                           ----- -----
  +--> adc_convert/zf_driver_adc
  +--> SPRINTF/SPRINTF
  +--> ips200_show_string/zf_device_ips200

encoder_integrate/command                     ----- -----

seekfree_assistant_oscilloscope_code/com+     ----- -----
... mand
  +--> seekfree_assistant_data_analysis/seekfree_assistant
  +--> PRINTF/PRINTF
  +--> seekfree_assistant_set_parameter/command

seekfree_assistant_data_analysis/seekfre+     ----- -----
... e_assistant
  +--> fifo_write_buffer/zf_common_fifo
  +--> fifo_read_buffer/zf_common_fifo
  +--> seekfree_assistant_sum/seekfree_assistant
  +--> fifo_used/zf_common_fifo

seekfree_assistant_sum/seekfree_assistan+     ----- -----
... t

seekfree_assistant_set_parameter/command      ----- -----
  +--> eeprom_write/command
  +--> uart_printf/command
  +--> speed_debug/contrl
  +--> angle_debug/contrl
  +--> core_trace/contrl

speed_debug/contrl                            ----- -----
  +--> speed_control/contrl
  +--> control_output/contrl

speed_control/contrl                          ----- -----
  +--> speed_control_L/contrl
  +--> speed_control_R/contrl

speed_control_L/contrl                        ----- -----
  +--> PidLocCtrl/contrl
  +--> constrain_float/contrl

PidLocCtrl/contrl                             ----- -----
  +--> constrain_float/contrl

constrain_float/contrl                        ----- -----

speed_control_R/contrl                        ----- -----
  +--> PidLocCtrl/contrl
  +--> constrain_float/contrl

control_output/contrl                         ----- -----
  +--> control_update/contrl
  +--> constrain_float/contrl
  +--> pwm_set_duty/zf_driver_pwm

control_update/contrl                         ----- -----
  +--> angle_control/contrl
L251 LINKER/LOCATER V4.66.93.0                                                        06/12/2025  20:04:03  PAGE 23


  +--> angle_speed_control/contrl
  +--> speed_control/contrl

angle_control/contrl                          ----- -----
  +--> PidLocCtrl/contrl
  +--> constrain_float/contrl

angle_speed_control/contrl                    ----- -----
  +--> constrain_float/contrl
  +--> PidIncCtrl/contrl

PidIncCtrl/contrl                             ----- -----

pwm_set_duty/zf_driver_pwm                    ----- -----

angle_debug/contrl                            ----- -----
  +--> control_update/contrl
  +--> control_output/contrl

core_trace/contrl                             ----- -----

*** NEW ROOT ********************************

TM11_IRQHandler/isr                           ----- -----
  +--> control_output/contrl

*** NEW ROOT ********************************

DMA_UART1_IRQHandler/isr                      ----- -----
  +--> uart_rx_start_buff/zf_driver_uart

*** NEW ROOT ********************************

DMA_UART2_IRQHandler/isr                      ----- -----
  +--> uart_rx_start_buff/zf_driver_uart

*** NEW ROOT ********************************

DMA_UART3_IRQHandler/isr                      ----- -----
  +--> uart_rx_start_buff/zf_driver_uart

*** NEW ROOT ********************************

DMA_UART4_IRQHandler/isr                      ----- -----
  +--> uart_rx_start_buff/zf_driver_uart

*** NEW ROOT ********************************

TM0_IRQHandler/isr                            ----- -----

*** NEW ROOT ********************************

TM1_IRQHandler/isr                            ----- -----

*** NEW ROOT ********************************

TM2_IRQHandler/isr                            ----- -----

*** NEW ROOT ********************************

TM3_IRQHandler/isr                            ----- -----

*** NEW ROOT ********************************

TM4_IRQHandler/isr                            ----- -----
L251 LINKER/LOCATER V4.66.93.0                                                        06/12/2025  20:04:03  PAGE 24



*** NEW ROOT ********************************

?C_C51STARTUP?2                               ----- -----



PUBLIC SYMBOLS OF MODULE:  .\out_file\SEEKFREE (ai8051u_isr)


      VALUE       CLASS    TYPE      PUBLIC SYMBOL NAME
      =================================================
      00FF2EF0H   CODE     ---       ?C?BMOVEPP
      00FF2EEEH   CODE     ---       ?C?BMOVEPP8
      00FF248EH   CODE     NEAR LAB  ?C?CASTF
      000000FFH   NUMBER   ---       ?C?CODESEG
      00FF245BH   CODE     NEAR LAB  ?C?FCASTC
      00FF2456H   CODE     NEAR LAB  ?C?FCASTI
      00FF2451H   CODE     NEAR LAB  ?C?FCASTL
      00FF2B9DH   CODE     ---       ?C?FP2SERIES
      00FF2224H   CODE     ---       ?C?FPADD
      00FF23FFH   CODE     ---       ?C?FPCMP
      00FF23FDH   CODE     ---       ?C?FPCMP3
      00FF2CCAH   CODE     ---       ?C?FPCONVERT
      00FF237CH   CODE     ---       ?C?FPDIV
      00FF2710H   CODE     ---       ?C?FPGETOPN2
      00FF22DCH   CODE     ---       ?C?FPMUL
      00FF274DH   CODE     ---       ?C?FPNANRESULT
      00FF2443H   CODE     ---       ?C?FPNEG
      00FF2755H   CODE     ---       ?C?FPOVERFLOW
      00FF2729H   CODE     ---       ?C?FPRESULT
      00FF273FH   CODE     ---       ?C?FPRESULT2
      00FF2D82H   CODE     ---       ?C?FPROUND
      00FF2BA6H   CODE     ---       ?C?FPSERIES
      00FF2221H   CODE     ---       ?C?FPSUB
      00FF2752H   CODE     ---       ?C?FPUNDERFLOW
      00FF2DF5H   CODE     ---       ?C?FTNPWR
      00FFD7D7H   CODE     ---       ?C?INITHDATA
      00FFE87EH   HCONST   WORD      ?C?INITHDATA_END
      00FF2E5EH   CODE     ---       ?C?LIMUL
      00FF278EH   CODE     ---       ?C?PRNFMT
      00FF2E2CH   CODE     ---       ?C?SIDIV
      00FF2EBAH   CODE     NEAR LAB  ?C?SLDIV
      00FF0000H   CODE     ---       ?C?STARTUP
      00FF2E69H   CODE     NEAR LAB  ?C?ULDIV
      00FF2E67H   CODE     NEAR LAB  ?C?ULIDIV
      00000001H   NUMBER   ---       ?C?XDATASEG
      00FF0000H   CODE     ---       ?C_STARTUP
      00012C04H   XDATA    BYTE      ?constrain_float?BYTE
      00012AC4H   XDATA    BYTE      ?fifo_init?BYTE
      000129BCH   XDATA    BYTE      ?fifo_read_buffer?BYTE
      00012A5FH   XDATA    BYTE      ?fifo_write_buffer?BYTE
      00012C55H   XDATA    BYTE      ?iap_read_buff?BYTE
      00012C5FH   XDATA    BYTE      ?iap_write_buff?BYTE
      00012774H   XDATA    BYTE      ?ips200_show_float?BYTE
      00012848H   XDATA    ---       ?printf?BYTE
      00012A71H   XDATA    BYTE      ?pwm_init?BYTE
      000129E8H   XDATA    BYTE      ?pwm_set_freq?BYTE
      00012987H   XDATA    BYTE      ?quaternion_to_euler?BYTE
      00012911H   XDATA    BYTE      ?seekfree_assistant_camera_boundary_config?BYTE
      00012AB5H   XDATA    BYTE      ?seekfree_assistant_camera_data_send?BYTE
      00012CAFH   XDATA    BYTE      ?seekfree_assistant_camera_information_config?BYTE
      00012B5BH   XDATA    BYTE      ?soft_iic_init?BYTE
      00012B8CH   XDATA    BYTE      ?soft_iic_read_16bit_array?BYTE
      00012AFCH   XDATA    BYTE      ?soft_iic_read_16bit_registers?BYTE
L251 LINKER/LOCATER V4.66.93.0                                                        06/12/2025  20:04:03  PAGE 25


      00012B80H   XDATA    BYTE      ?soft_iic_read_8bit_array?BYTE
      00012B4EH   XDATA    BYTE      ?soft_iic_read_8bit_registers?BYTE
      00012A10H   XDATA    BYTE      ?soft_iic_transfer_16bit_array?BYTE
      000129FCH   XDATA    BYTE      ?soft_iic_transfer_8bit_array?BYTE
      00012B74H   XDATA    BYTE      ?soft_iic_write_16bit_array?BYTE
      00012AEEH   XDATA    BYTE      ?soft_iic_write_16bit_registers?BYTE
      00012B68H   XDATA    BYTE      ?soft_iic_write_8bit_array?BYTE
      00012B41H   XDATA    BYTE      ?soft_iic_write_8bit_registers?BYTE
      00012A24H   XDATA    BYTE      ?spi_init?BYTE
      00012C87H   XDATA    BYTE      ?spi_read_16bit_array?BYTE
      00012BA4H   XDATA    BYTE      ?spi_read_16bit_registers?BYTE
      00012C7DH   XDATA    BYTE      ?spi_read_8bit_array?BYTE
      00012C4AH   XDATA    BYTE      ?spi_read_8bit_registers?BYTE
      00012B18H   XDATA    BYTE      ?spi_transfer_16bit?BYTE
      00012B0AH   XDATA    BYTE      ?spi_transfer_8bit?BYTE
      00012C73H   XDATA    BYTE      ?spi_write_16bit_array?BYTE
      00012B98H   XDATA    BYTE      ?spi_write_16bit_registers?BYTE
      00012C69H   XDATA    BYTE      ?spi_write_8bit_array?BYTE
      00012C3FH   XDATA    BYTE      ?spi_write_8bit_registers?BYTE
      00012848H   XDATA    ---       ?sprintf?BYTE
      00012BC8H   XDATA    BYTE      ?uart_init?BYTE
      000122ABH   XDATA    BYTE      ?uart_printf?BYTE
      00012818H   XDATA    ---       ?vsprintf?BYTE
      00012617H   XDATA    BYTE      ?zf_sprintf?BYTE
      0001273BH   XDATA    CHAR      _task_for_cnt
      000126FEH   XDATA    CHAR      _this_task
      00FFE2C3H   CODE     ---       abs?_
*SFR* 000000D0H.6 DATA     BIT       AC
*SFR* 000000E0H   DATA     BYTE      ACC
*SFR* 000000BCH   DATA     BYTE      ADC_CONTR
      00FFD2EBH   CODE     ---       adc_convert
      00FFC436H   CODE     ---       adc_init
      00FFDF8AH   CODE     ---       adc_main_init
      00FFCC91H   CODE     ---       adc_main_read
*DEL*:00000000H   CODE     ---       adc_mean_filter_convert
*SFR* 000000BDH   DATA     BYTE      ADC_RES
*SFR* 000000BEH   DATA     BYTE      ADC_RESL
      00FFA9EDH   CODE     ---       adc_text
*SFR* 000000DEH   DATA     BYTE      ADCCFG
      00FFB90BH   CODE     ---       angle_control
      00FF01BEH   CODE     ---       angle_debug
      000121ABH   XDATA    FLOAT     angle_output
      00FFC220H   CODE     ---       angle_speed_control
      00012197H   XDATA    FLOAT     angle_speed_output
      00FFDBBEH   CODE     ---       atan2?_
      00FF2BEAH   CODE     ---       atan?_
*SFR* 000000EFH   DATA     BYTE      AUXINTIF
*SFR* 0000008EH   DATA     BYTE      AUXR
*SFR* 00000097H   DATA     BYTE      AUXR2
*SFR* 000000F0H   DATA     BYTE      B
      00FFE1EDH   CODE     ---       ble6a20_callback
      00FFCDA2H   CODE     ---       ble6a20_init
      00FFD418H   CODE     ---       ble6a20_read_buffer
      00FFBAEDH   CODE     ---       ble6a20_send_buffer
*DEL*:00000000H   CODE     ---       ble6a20_send_byte
      00012900H   XDATA    BYTE      button1
      00012901H   XDATA    BYTE      button2
      00012902H   XDATA    BYTE      button3
      00012903H   XDATA    BYTE      button4
      00012904H   XDATA    BYTE      button5
      00FF807FH   CODE     ---       button_entry
      00FFE19DH   CODE     ---       buzzer_time
*SFR* 000000C8H.1 DATA     BIT       C_T2
*SFR* 000000FAH   DATA     BYTE      CCAP0H
*SFR* 000000EAH   DATA     BYTE      CCAP0L
L251 LINKER/LOCATER V4.66.93.0                                                        06/12/2025  20:04:03  PAGE 26


*SFR* 000000FBH   DATA     BYTE      CCAP1H
*SFR* 000000EBH   DATA     BYTE      CCAP1L
*SFR* 000000FCH   DATA     BYTE      CCAP2H
*SFR* 000000ECH   DATA     BYTE      CCAP2L
*SFR* 000000FDH   DATA     BYTE      CCAP3H
*SFR* 000000EDH   DATA     BYTE      CCAP3L
*SFR* 000000FEH   DATA     BYTE      CCAP4H
*SFR* 000000EEH   DATA     BYTE      CCAP4L
*SFR* 000000DAH   DATA     BYTE      CCAPM0
*SFR* 000000DBH   DATA     BYTE      CCAPM1
*SFR* 000000DCH   DATA     BYTE      CCAPM2
*SFR* 000000DDH   DATA     BYTE      CCAPM3
*SFR* 000000DEH   DATA     BYTE      CCAPM4
*SFR* 000000D8H.0 DATA     BIT       CCF0
*SFR* 000000D8H.1 DATA     BIT       CCF1
*SFR* 000000D8H.2 DATA     BIT       CCF2
*SFR* 000000D8H.3 DATA     BIT       CCF3
*SFR* 000000D8H.4 DATA     BIT       CCF4
*SFR* 000000D8H   DATA     BYTE      CCON
*SFR* 00000090H.3 DATA     BIT       CEX0
*SFR* 00000090H.4 DATA     BIT       CEX1
*SFR* 00000090H.5 DATA     BIT       CEX2
*SFR* 00000090H.6 DATA     BIT       CEX3
*SFR* 00000090H.7 DATA     BIT       CEX4
*SFR* 000000D8H.7 DATA     BIT       CF
*SFR* 000000F9H   DATA     BYTE      CH
*SFR* 000000EAH   DATA     BYTE      CKCON
*SFR* 000000E9H   DATA     BYTE      CL
      00FFBA01H   CODE     ---       clock_init
*SFR* 000000D9H   DATA     BYTE      CMOD
*SFR* 000000E6H   DATA     BYTE      CMPCR1
*SFR* 000000E7H   DATA     BYTE      CMPCR2
      00FFD14FH   CODE     ---       constrain_float
      00FFD350H   CODE     ---       control_init
      00FFAFE9H   CODE     ---       control_output
*DEL*:00000000H   CODE     ---       control_test
      00FFE277H   CODE     ---       control_update
      00FFA520H   CODE     ---       core_trace
      00FF2620H   CODE     ---       cos?_
*SFR* 000000C8H.0 DATA     BIT       CP_RL2
*SFR* 000000D8H.6 DATA     BIT       CR
*SFR* 000000D0H.7 DATA     BIT       CY
      00FFC76FH   CODE     ---       debug_init
      00FFDE74H   CODE     ---       debug_interrupr_handler
      00FFDA48H   CODE     ---       debug_read_buffer
      00FFD286H   CODE     ---       debug_send_buffer
      0001264EH   XDATA    ---       debug_uart_buffer
      0001268FH   XDATA    ---       debug_uart_fifo
      00FFD595H   CODE     ---       display_vcc
      00FFC4E5H   CODE     ---       DMA_UART1_IRQHandler
      00FFCAF6H   CODE     ---       DMA_UART2_IRQHandler
      00FFCB7FH   CODE     ---       DMA_UART3_IRQHandler
      00FFCC08H   CODE     ---       DMA_UART4_IRQHandler
*SFR* 00000083H   DATA     BYTE      DPH
*SFR* 00000082H   DATA     BYTE      DPL
*SFR* 00000084H   DATA     BYTE      DPXL
*SFR* 000000A8H.7 DATA     BIT       EA
*SFR* 000000A8H.6 DATA     BIT       EC
*SFR* 00000090H.2 DATA     BIT       ECI
      00FF0003H   CODE     ---       eeprom_erase
      00FF8C8DH   CODE     ---       eeprom_init_code
      000124EAH   XDATA    ---       eeprom_PID
      00FF7DF5H   CODE     ---       eeprom_read_inductance_max_min
      00FF000EH   CODE     ---       eeprom_trig
      00FF8582H   CODE     ---       eeprom_write
L251 LINKER/LOCATER V4.66.93.0                                                        06/12/2025  20:04:03  PAGE 27


      00FF8EDBH   CODE     ---       eeprom_write_inductance_max_min
      00FFC62EH   CODE     ---       encoder_clear_count
      000124BFH   XDATA    INT       encoder_data_dir_1
      000124C1H   XDATA    INT       encoder_data_dir_2
      00FF00C6H   CODE     ---       encoder_dir_init
      0001001CH   XDATA    ---       encoder_file
      00FFB27EH   CODE     ---       encoder_get_count
      00FFDAE4H   CODE     ---       encoder_init
*DEL*:00000000H   CODE     ---       encoder_ins
*DEL*:00000000H   CODE     ---       encoder_ins_infile
      00010001H   XDATA    BYTE      encoder_ins_memory_flag
      0001000EH   XDATA    WORD      encoder_ins_num
      000124CEH   XDATA    DWORD     encoder_integral_1
      000124D2H   XDATA    DWORD     encoder_integral_2
      000124C5H   XDATA    BYTE      encoder_integral_flag
      00FFDC03H   CODE     ---       encoder_integrate
      00FFD4D9H   CODE     ---       encoder_text
*SFR* 000000A8H.4 DATA     BIT       ES
*SFR* 000000A8H.1 DATA     BIT       ET0
*SFR* 000000A8H.3 DATA     BIT       ET1
*SFR* 000000A8H.5 DATA     BIT       ET2
      00010002H   XDATA    ---       euler
*SFR* 000000A8H.0 DATA     BIT       EX0
*SFR* 000000A8H.2 DATA     BIT       EX1
*SFR* 000000C8H.3 DATA     BIT       EXEN2
*SFR* 000000C8H.6 DATA     BIT       EXF2
*DEL*:00000000H   CODE     ---       extern_iap_write_buff
*SFR* 000000D0H.5 DATA     BIT       F0
      00FF2539H   CODE     NEAR LAB  fabs?_
*SFR* 00000098H.7 DATA     BIT       FE
*DEL*:00000000H   CODE     ---       fifo_clear
      00FFC385H   CODE     ---       fifo_init
      00FF4C48H   CODE     ---       fifo_read_buffer
      00FFE08BH   CODE     ---       fifo_used
      00FF470DH   CODE     ---       fifo_write_buffer
*DEL*:00000000H   CODE     ---       func_double_to_str
*DEL*:00000000H   CODE     ---       func_float_to_str
*DEL*:00000000H   CODE     ---       func_get_greatest_common_divisor
*DEL*:00000000H   CODE     ---       func_hex_to_str
*DEL*:00000000H   CODE     ---       func_int_to_str
*DEL*:00000000H   CODE     ---       func_soft_delay
*DEL*:00000000H   CODE     ---       func_str_to_double
*DEL*:00000000H   CODE     ---       func_str_to_float
*DEL*:00000000H   CODE     ---       func_str_to_hex
*DEL*:00000000H   CODE     ---       func_str_to_int
*DEL*:00000000H   CODE     ---       func_str_to_uint
*DEL*:00000000H   CODE     ---       func_uint_to_str
      00FFDEADH   CODE     ---       function_adc_test
      00FF6CA4H   CODE     ---       function_angle_pid_setting
      00FF6979H   CODE     ---       function_angle_speed_pid_setting
      00FFDF1EH   CODE     ---       function_buzzer_test
      00FFDDF9H   CODE     ---       function_dummy
      00FFE058H   CODE     ---       function_encoder_test
      00FFE0BCH   CODE     ---       function_image_path_test
      00FFE025H   CODE     ---       function_imu_test
      00FFDC44H   CODE     ---       function_inductance_max_min_setting
      00FF9DF8H   CODE     ---       function_inductance_max_min_show
*DEL*:00000000H   CODE     ---       function_ips_test
      00FFDFF2H   CODE     ---       function_key_test
      00FF6FCFH   CODE     ---       function_left_motor_pid_setting
      00FF9590H   CODE     ---       function_reset_pid
      00FF6637H   CODE     ---       function_right_motor_pid_setting
      00FFC58AH   CODE     ---       function_sensor_calibration
      00FFBBD0H   CODE     ---       function_speed_setting
      00FFDFBFH   CODE     ---       function_uart_printf_test
L251 LINKER/LOCATER V4.66.93.0                                                        06/12/2025  20:04:03  PAGE 28


*DEL*:00000000H   CODE     ---       get_quaternion
      00FFB6FFH   CODE     ---       gpio_get_level
      00FFBE60H   CODE     ---       gpio_init
      00FFAE78H   CODE     ---       gpio_set_impedance
      00FFA377H   CODE     ---       gpio_set_level
      00FF75DEH   CODE     ---       gpio_set_level_speed
*DEL*:00000000H   CODE     ---       gpio_toggle_level
      00FF87E3H   CODE     ---       gyro_calibrate
*DEL*:00000000H   CODE     ---       hall_init
*DEL*:00000000H   CODE     ---       hall_text
      00012183H   XDATA    FLOAT     horizontal_diff_ratio_sum
*SFR* 000000F6H   DATA     BYTE      IAP_ADDRE
*SFR* 000000C3H   DATA     BYTE      IAP_ADDRH
*SFR* 000000C4H   DATA     BYTE      IAP_ADDRL
*SFR* 000000C5H   DATA     BYTE      IAP_CMD
*SFR* 000000C7H   DATA     BYTE      IAP_CONTR
*SFR* 000000C2H   DATA     BYTE      IAP_DATA
      00FF01CEH   CODE     ---       iap_erase_page
*DEL*:00000000H   CODE     ---       iap_get_cmd_state
*DEL*:00000000H   CODE     ---       iap_idle
      00FF01AEH   CODE     ---       iap_init
      00FFD011H   CODE     ---       iap_read_buff
      00FFD95BH   CODE     ---       iap_read_byte
      00FFE1C7H   CODE     ---       iap_set_tps
*SFR* 000000F5H   DATA     BYTE      IAP_TPS
*SFR* 000000C6H   DATA     BYTE      IAP_TRIG
      00FFD1B8H   CODE     ---       iap_write_buff
      00FFD9AAH   CODE     ---       iap_write_byte
*SFR* 000000A8H   DATA     BYTE      IE
*SFR* 000000A8H   DATA     BYTE      IE0
*SFR* 00000088H.1 DATA     BIT       IE0_
*SFR* 000000B1H   DATA     BYTE      IE1
*SFR* 00000088H.3 DATA     BIT       IE1_
*SFR* 000000AFH   DATA     BYTE      IE2
*DEL*:00000000H   CODE     ---       image_path
      00012A38H   XDATA    INT       imu660ra_acc_x
      00012A3AH   XDATA    INT       imu660ra_acc_y
      00012A3CH   XDATA    INT       imu660ra_acc_z
      00FF021EH   CODE     ---       imu660ra_config_file
*DEL*:00000000H   CODE     ---       imu660ra_get_acc
      00FFD8B4H   CODE     ---       imu660ra_get_gyro
      00012A3EH   XDATA    INT       imu660ra_gyro_x
      00012A40H   XDATA    INT       imu660ra_gyro_y
      00012A42H   XDATA    INT       imu660ra_gyro_z
      00FF97C8H   CODE     ---       imu660ra_init
*DEL*:00000000H   CODE     ---       imu660ra_text
      00012A44H   XDATA    ---       imu660ra_transition_factor
      00010010H   XDATA    ---       imu_data
      00FF001EH   CODE     ---       imu_isr
      00FFD9F9H   CODE     ---       IMU_lvbo
      00FFB806H   CODE     ---       inductance_difference_ratio_sum
      00012538H   XDATA    FLOAT     inductance_horizontal_1
      0001218BH   XDATA    FLOAT     inductance_horizontal_1_max
      00012187H   XDATA    FLOAT     inductance_horizontal_1_min
      0001253CH   XDATA    FLOAT     inductance_horizontal_4
      00012193H   XDATA    FLOAT     inductance_horizontal_4_max
      0001218FH   XDATA    FLOAT     inductance_horizontal_4_min
      000124CAH   XDATA    FLOAT     inductance_horizontal_middle
      00FF5AA8H   CODE     ---       inductance_judgment
      00012540H   XDATA    ---       inductance_max_min
      00011E01H   XDATA    BYTE      inductance_max_min_flag
*DEL*:00000000H   CODE     ---       inductance_normalization_max
      00012558H   XDATA    FLOAT     inductance_vertical_2
      000121A7H   XDATA    FLOAT     inductance_vertical_2_max
      0001219FH   XDATA    FLOAT     inductance_vertical_2_min
L251 LINKER/LOCATER V4.66.93.0                                                        06/12/2025  20:04:03  PAGE 29


      0001255CH   XDATA    FLOAT     inductance_vertical_3
      000121AFH   XDATA    FLOAT     inductance_vertical_3_max
      000121A3H   XDATA    FLOAT     inductance_vertical_3_min
      00010000H   XDATA    BYTE      ins_go_flag
*SFR* 000000B0H.2 DATA     BIT       INT0
      0001293CH   XDATA    ---       int0_irq_handler
*SFR* 000000B0H.3 DATA     BIT       INT1
      00012940H   XDATA    ---       int1_irq_handler
      00012944H   XDATA    ---       int2_irq_handler
      00012948H   XDATA    ---       int3_irq_handler
      0001294CH   XDATA    ---       int4_irq_handler
*SFR* 0000008FH   DATA     BYTE      INTCLKO
*DEL*:00000000H   CODE     ---       interrupt_global_disable
      00FF0040H   CODE     ---       interrupt_global_enable
*DEL*:00000000H   CODE     ---       interrupt_set_priority
*SFR* 000000B8H   DATA     BYTE      IP
*SFR* 000000B5H   DATA     BYTE      IP2
*SFR* 000000B6H   DATA     BYTE      IP2H
*SFR* 000000DFH   DATA     BYTE      IP3
*SFR* 000000EEH   DATA     BYTE      IP3H
*SFR* 000000B7H   DATA     BYTE      IPH
*SFR* 000000B7H   DATA     BYTE      IPH0
*SFR* 000000B8H   DATA     BYTE      IPL0
      00012C93H   XDATA    WORD      ips200_bgcolor
      00FFCF9EH   CODE     ---       ips200_clear
      00012C95H   XDATA    INT       ips200_display_dir
*DEL*:00000000H   CODE     ---       ips200_draw_point
      00FF9358H   CODE     ---       ips200_init
      00012C91H   XDATA    WORD      ips200_pencolor
      00FF0066H   CODE     ---       ips200_set_color
      00FFE28BH   CODE     ---       ips200_set_dir
      00FFBFF5H   CODE     ---       ips200_show_char
*DEL*:00000000H   CODE     ---       ips200_show_float
      00FFB5EAH   CODE     ---       ips200_show_int16
*DEL*:00000000H   CODE     ---       ips200_show_int8
      00FFCF29H   CODE     ---       ips200_show_string
*DEL*:00000000H   CODE     ---       ips200_show_uint16
      00FFC9D2H   CODE     ---       ips200_show_uint8
      00012C97H   XDATA    WORD      ips200_x_max
      00012C99H   XDATA    WORD      ips200_y_max
*DEL*:00000000H   CODE     ---       ips_text
*SFR* 0000009DH   DATA     BYTE      IRCBAND
*SFR* 00000088H.0 DATA     BIT       IT0
*SFR* 00000088H.2 DATA     BIT       IT1
*DEL*:00000000H   CODE     ---       key1_can
      000128F6H   XDATA    BYTE      key1_count
      00012905H   XDATA    BYTE      key1_flag
      000128F1H   XDATA    BYTE      key1_state
      000128FBH   XDATA    BYTE      key1_state_last
*DEL*:00000000H   CODE     ---       key2_can
      000128F7H   XDATA    BYTE      key2_count
      00012906H   XDATA    BYTE      key2_flag
      000128F2H   XDATA    BYTE      key2_state
      000128FCH   XDATA    BYTE      key2_state_last
*DEL*:00000000H   CODE     ---       key3_can
      000128F8H   XDATA    BYTE      key3_count
      00012907H   XDATA    BYTE      key3_flag
      000128F3H   XDATA    BYTE      key3_state
      000128FDH   XDATA    BYTE      key3_state_last
*DEL*:00000000H   CODE     ---       key4_can
      000128F9H   XDATA    BYTE      key4_count
      00012908H   XDATA    BYTE      key4_flag
      000128F4H   XDATA    BYTE      key4_state
      000128FEH   XDATA    BYTE      key4_state_last
*DEL*:00000000H   CODE     ---       key5_can
L251 LINKER/LOCATER V4.66.93.0                                                        06/12/2025  20:04:03  PAGE 30


      000128FAH   XDATA    BYTE      key5_count
      00012909H   XDATA    BYTE      key5_flag
      000128F5H   XDATA    BYTE      key5_state
      000128FFH   XDATA    BYTE      key5_state_last
      00FFDB77H   CODE     ---       key_into
      00FFC6CFH   CODE     ---       key_text
      000124BDH   XDATA    INT       L_encoder
      00FF5ED7H   CODE     ---       MAIN
      00FFE213H   CODE     ---       memcpy?_
*DEL*:00000000H   CODE     ---       memset?_
      00FF99FFH   CODE     ---       menu_display
      00FF3570H   CODE     ---       menu_init
      00010FD2H   XDATA    ---       menu_pages
      00FF911DH   CODE     ---       menu_process_buttons
      00FF9FE5H   CODE     ---       menu_run
      00011DF7H   XDATA    ---       menu_state
      00012247H   XDATA    FLOAT     motor_output_L
      0001224FH   XDATA    FLOAT     motor_output_R
*SFR* 000000D0H.2 DATA     BIT       OV
*SFR* 000000D0H.0 DATA     BIT       P
*SFR* 00000080H   DATA     BYTE      P0
*SFR* 00000094H   DATA     BYTE      P0M0
*SFR* 00000093H   DATA     BYTE      P0M1
*SFR* 00000090H   DATA     BYTE      P1
*SFR* 00000092H   DATA     BYTE      P1M0
*SFR* 00000091H   DATA     BYTE      P1M1
*SFR* 000000A0H   DATA     BYTE      P2
*SFR* 000000A0H.0 DATA     BIT       P20
*SFR* 000000A0H.1 DATA     BIT       P21
*SFR* 000000A0H.2 DATA     BIT       P22
*SFR* 00000096H   DATA     BYTE      P2M0
*SFR* 00000095H   DATA     BYTE      P2M1
*SFR* 000000B0H   DATA     BYTE      P3
*SFR* 000000B2H   DATA     BYTE      P3M0
*SFR* 000000B1H   DATA     BYTE      P3M1
*SFR* 000000C0H   DATA     BYTE      P4
*SFR* 000000B4H   DATA     BYTE      P4M0
*SFR* 000000B3H   DATA     BYTE      P4M1
*SFR* 000000C8H   DATA     BYTE      P5
*SFR* 000000CAH   DATA     BYTE      P5M0
*SFR* 000000C9H   DATA     BYTE      P5M1
*SFR* 000000E8H   DATA     BYTE      P6
*SFR* 000000CCH   DATA     BYTE      P6M0
*SFR* 000000CBH   DATA     BYTE      P6M1
*SFR* 000000F8H   DATA     BYTE      P7
*SFR* 000000E2H   DATA     BYTE      P7M0
*SFR* 000000E1H   DATA     BYTE      P7M1
*SFR* 000000A2H   DATA     BYTE      P_SW1
*SFR* 000000BAH   DATA     BYTE      P_SW2
*SFR* 000000BBH   DATA     BYTE      P_SW3
*SFR* 000000BFH   DATA     BYTE      P_SW4
*SFR* 00000087H   DATA     BYTE      PCON
      000121FBH   XDATA    ---       PID_angle
      00012237H   XDATA    FLOAT     PID_angle_D
      0001223FH   XDATA    FLOAT     PID_angle_I
      0001224BH   XDATA    FLOAT     PID_angle_P
      000121CBH   XDATA    ---       PID_angle_speed
      0001222BH   XDATA    FLOAT     PID_angle_speed_D
      0001222FH   XDATA    FLOAT     PID_angle_speed_I
      0001223BH   XDATA    FLOAT     PID_angle_speed_P
      00012253H   XDATA    ---       PID_MOTOR_L
      000121B3H   XDATA    FLOAT     PID_MOTOR_L_D
      000121B7H   XDATA    FLOAT     PID_MOTOR_L_I
      000121C3H   XDATA    FLOAT     PID_MOTOR_L_P
      00012153H   XDATA    ---       PID_MOTOR_R
L251 LINKER/LOCATER V4.66.93.0                                                        06/12/2025  20:04:03  PAGE 31


      000121BBH   XDATA    FLOAT     PID_MOTOR_R_D
      000121BFH   XDATA    FLOAT     PID_MOTOR_R_I
      000121C7H   XDATA    FLOAT     PID_MOTOR_R_P
      00FFA6C5H   CODE     ---       PidIncCtrl
      00FF78A5H   CODE     ---       PidInit
      00FFA1B0H   CODE     ---       PidLocCtrl
      00FFE172H   CODE     ---       pit_handler
      00FF72EBH   CODE     ---       pit_init
*SFR* 000000B8H.6 DATA     BIT       PPC
      00FF24CBH   CODE     NEAR LAB  printf
*SFR* 000000B8H.4 DATA     BIT       PS
*SFR* 000000D0H   DATA     BYTE      PSW
*SFR* 000000D1H   DATA     BYTE      PSW1
*SFR* 000000B8H.1 DATA     BIT       PT0
*SFR* 000000B8H.3 DATA     BIT       PT1
*SFR* 000000B8H.5 DATA     BIT       PT2
      00FFE2B1H   CODE     ---       putchar
      00FFF660H   HCONST   ---       PWM_ARR_ADDR
      00FFF668H   HCONST   ---       PWM_CCER_ADDR
      00FFF678H   HCONST   ---       PWM_CCMR_ADDR
      00FFF640H   HCONST   ---       PWM_CCR_ADDR
      00FF417DH   CODE     ---       pwm_init
      00FFF638H   HCONST   ---       PWM_PSCR_ADDR
      00FFA865H   CODE     ---       pwm_set_duty
*DEL*:00000000H   CODE     ---       pwm_set_freq
*SFR* 000000B8H.0 DATA     BIT       PX0
*SFR* 000000B8H.2 DATA     BIT       PX1
      00010FBCH   XDATA    ---       q
      00FF9C00H   CODE     ---       quat_normalize
      00FFB4D3H   CODE     ---       quaternion_display
      00FFD707H   CODE     ---       quaternion_init
      00FFB3B2H   CODE     ---       quaternion_to_euler
      00FF62B3H   CODE     ---       quaternion_update
      000124C3H   XDATA    INT       R_encoder
*SFR* 00000098H.2 DATA     BIT       RB8
*SFR* 000000CBH   DATA     BYTE      RCAP2H
*SFR* 000000CAH   DATA     BYTE      RCAP2L
*SFR* 000000C8H.5 DATA     BIT       RCLK
*SFR* 000000B0H.7 DATA     BIT       RD
*SFR* 00000098H.4 DATA     BIT       REN
*SFR* 00000098H.0 DATA     BIT       RI
*SFR* 000000D0H.3 DATA     BIT       RS0
*SFR* 000000D0H.4 DATA     BIT       RS1
*SFR* 000000FFH   DATA     BYTE      RSTCFG
*SFR* 000000B0H.0 DATA     BIT       RXD
*SFR* 0000009BH   DATA     BYTE      S2BUF
*SFR* 0000009AH   DATA     BYTE      S2CON
*SFR* 0000009AH.1 DATA     BIT       S2TI
*SFR* 000000ACH   DATA     BYTE      S3CON
*SFR* 000000FDH   DATA     BYTE      S4CON
*SFR* 000000A9H   DATA     BYTE      SADDR
*SFR* 000000B9H   DATA     BYTE      SADEN
*SFR* 00000099H   DATA     BYTE      SBUF
*SFR* 00000098H   DATA     BYTE      SCON
*DEL*:00000000H   CODE     ---       seekfree_assistant_camera_boundary_config
*DEL*:00000000H   CODE     ---       seekfree_assistant_camera_data_send
*DEL*:00000000H   CODE     ---       seekfree_assistant_camera_dot_send
*DEL*:00000000H   CODE     ---       seekfree_assistant_camera_information_config
*DEL*:00000000H   CODE     ---       seekfree_assistant_camera_send
      00FF8302H   CODE     ---       seekfree_assistant_data_analysis
      00FFE0ECH   CODE     ---       seekfree_assistant_init
      00FFDC84H   CODE     ---       seekfree_assistant_interface_init
      00FFCEAAH   CODE     ---       seekfree_assistant_open
      00FFD0E6H   CODE     ---       seekfree_assistant_oscilloscope_code
      0001201AH   XDATA    ---       seekfree_assistant_oscilloscope_data
L251 LINKER/LOCATER V4.66.93.0                                                        06/12/2025  20:04:03  PAGE 32


      00FF019EH   CODE     ---       seekfree_assistant_oscilloscope_init
*DEL*:00000000H   CODE     ---       seekfree_assistant_oscilloscope_send
      0001205DH   XDATA    ---       seekfree_assistant_parameter
      00012055H   XDATA    ---       seekfree_assistant_parameter_update_flag
      00012E96H   XDATA    ---       seekfree_assistant_receive_callback
      00FF2F17H   CODE     ---       seekfree_assistant_set_parameter
      00012E98H   XDATA    ---       seekfree_assistant_transfer_callback
      00011E00H   XDATA    BYTE      seekfree_flag
      00FFD6ABH   CODE     ---       set_task_mode
      00FFC93BH   CODE     ---       set_wireless_type
      00FF263DH   CODE     ---       sin?_
*SFR* 00000098H.7 DATA     BIT       SM0
*SFR* 00000098H.6 DATA     BIT       SM1
*SFR* 00000098H.5 DATA     BIT       SM2
      00FFDEE6H   CODE     ---       soft_iic_delay
*DEL*:00000000H   CODE     ---       soft_iic_init
*DEL*:00000000H   CODE     ---       soft_iic_read_16bit
*DEL*:00000000H   CODE     ---       soft_iic_read_16bit_array
*DEL*:00000000H   CODE     ---       soft_iic_read_16bit_register
*DEL*:00000000H   CODE     ---       soft_iic_read_16bit_registers
*DEL*:00000000H   CODE     ---       soft_iic_read_8bit
*DEL*:00000000H   CODE     ---       soft_iic_read_8bit_array
*DEL*:00000000H   CODE     ---       soft_iic_read_8bit_register
*DEL*:00000000H   CODE     ---       soft_iic_read_8bit_registers
*DEL*:00000000H   CODE     ---       soft_iic_read_data
*DEL*:00000000H   CODE     ---       soft_iic_sccb_read_register
*DEL*:00000000H   CODE     ---       soft_iic_sccb_write_register
*DEL*:00000000H   CODE     ---       soft_iic_send_ack
*DEL*:00000000H   CODE     ---       soft_iic_send_data
*DEL*:00000000H   CODE     ---       soft_iic_start
*DEL*:00000000H   CODE     ---       soft_iic_stop
*DEL*:00000000H   CODE     ---       soft_iic_transfer_16bit_array
*DEL*:00000000H   CODE     ---       soft_iic_transfer_8bit_array
      00FFC16DH   CODE     ---       soft_iic_wait_ack
*DEL*:00000000H   CODE     ---       soft_iic_write_16bit
*DEL*:00000000H   CODE     ---       soft_iic_write_16bit_array
*DEL*:00000000H   CODE     ---       soft_iic_write_16bit_register
*DEL*:00000000H   CODE     ---       soft_iic_write_16bit_registers
*DEL*:00000000H   CODE     ---       soft_iic_write_8bit
*DEL*:00000000H   CODE     ---       soft_iic_write_8bit_array
*DEL*:00000000H   CODE     ---       soft_iic_write_8bit_register
*DEL*:00000000H   CODE     ---       soft_iic_write_8bit_registers
*SFR* 00000081H   DATA     BYTE      SP
*SFR* 000000CEH   DATA     BYTE      SPCTL
*SFR* 000000CFH   DATA     BYTE      SPDAT
      00FFE2E1H   CODE     ---       speed_control
      00FFBD88H   CODE     ---       speed_control_L
      00FFBCAEH   CODE     ---       speed_control_R
      00FFE258H   CODE     ---       speed_debug
      000124DAH   XDATA    FLOAT     speed_L
      000124E2H   XDATA    FLOAT     speed_R
      00010FD0H   XDATA    INT       speed_value
*SFR* 000000BEH   DATA     BYTE      SPH
      00FF5631H   CODE     ---       spi_init
*DEL*:00000000H   CODE     ---       spi_read_16bit
*DEL*:00000000H   CODE     ---       spi_read_16bit_array
*DEL*:00000000H   CODE     ---       spi_read_16bit_register
*DEL*:00000000H   CODE     ---       spi_read_16bit_registers
*DEL*:00000000H   CODE     ---       spi_read_8bit
*DEL*:00000000H   CODE     ---       spi_read_8bit_array
*DEL*:00000000H   CODE     ---       spi_read_8bit_register
      00FFD07CH   CODE     ---       spi_read_8bit_registers
      00FFD3B5H   CODE     ---       spi_read_dat
*DEL*:00000000H   CODE     ---       spi_transfer_16bit
*DEL*:00000000H   CODE     ---       spi_transfer_8bit
L251 LINKER/LOCATER V4.66.93.0                                                        06/12/2025  20:04:03  PAGE 33


      00FFDF55H   CODE     ---       spi_write_16bit
*DEL*:00000000H   CODE     ---       spi_write_16bit_array
*DEL*:00000000H   CODE     ---       spi_write_16bit_register
*DEL*:00000000H   CODE     ---       spi_write_16bit_registers
      00FF00A6H   CODE     ---       spi_write_8bit
*DEL*:00000000H   CODE     ---       spi_write_8bit_array
      00FFE147H   CODE     ---       spi_write_8bit_register
      00FFD64FH   CODE     ---       spi_write_8bit_registers
      00FFDB30H   CODE     ---       spi_write_dat
      00FF24F7H   CODE     NEAR LAB  sprintf
*SFR* 000000CDH   DATA     BYTE      SPSTAT
      00FF2548H   CODE     ---       sqrt?_
      00FF004AH   CODE     NEAR LAB  strcmp?_
      00FFE29EH   CODE     NEAR LAB  strcpy?_
      00FFE2D3H   CODE     ---       strlen?_
      00012E3EH   XDATA    LONG      system_clock
      00FFD538H   CODE     ---       system_delay_init
      00FFCD1AH   CODE     ---       system_delay_ms
*DEL*:00000000H   CODE     ---       system_delay_us
*SFR* 000000B0H.4 DATA     BIT       T0
*SFR* 000000B0H.5 DATA     BIT       T1
*SFR* 00000090H.0 DATA     BIT       T2
*SFR* 000000C8H   DATA     BYTE      T2CON
*SFR* 00000090H.1 DATA     BIT       T2EX
*SFR* 000000D6H   DATA     BYTE      T2H
*SFR* 000000D7H   DATA     BYTE      T2L
*SFR* 000000C9H   DATA     BYTE      T2MOD
*SFR* 000000D4H   DATA     BYTE      T3H
*SFR* 000000D5H   DATA     BYTE      T3L
*SFR* 000000D2H   DATA     BYTE      T4H
*SFR* 000000D3H   DATA     BYTE      T4L
*SFR* 000000DDH   DATA     BYTE      T4T3M
      00FF266AH   CODE     ---       TAN?_
      00012243H   XDATA    FLOAT     target_angle
      0001214FH   XDATA    FLOAT     target_speed
*SFR* 00000098H.3 DATA     BIT       TB8
*SFR* 000000C8H.4 DATA     BIT       TCLK
*SFR* 00000088H   DATA     BYTE      TCON
*SFR* 00000088H.5 DATA     BIT       TF0
*SFR* 00000088H.7 DATA     BIT       TF1
*SFR* 000000C8H.7 DATA     BIT       TF2
      00FF3B8DH   CODE     ---       tft_ascii
*SFR* 0000008CH   DATA     BYTE      TH0
*SFR* 0000008DH   DATA     BYTE      TH1
*SFR* 000000CDH   DATA     BYTE      TH2
*SFR* 00000098H.1 DATA     BIT       TI
      0001293AH   XDATA    ---       tim0_irq_handler
      00012930H   XDATA    ---       tim11_irq_handler
      0001293EH   XDATA    ---       tim1_irq_handler
      00012942H   XDATA    ---       tim2_irq_handler
      00012946H   XDATA    ---       tim3_irq_handler
      0001294AH   XDATA    ---       tim4_irq_handler
      000124C6H   XDATA    DWORD     time_delta
      000124E6H   XDATA    DWORD     time_end
      00012233H   XDATA    DWORD     time_out
      000124DEH   XDATA    DWORD     time_start
*DEL*:00000000H   CODE     ---       timer_funciton_check
*SFR* 0000008AH   DATA     BYTE      TL0
*SFR* 0000008BH   DATA     BYTE      TL1
*SFR* 000000CCH   DATA     BYTE      TL2
      00FFDCC3H   CODE     ---       TM0_IRQHandler
      00FFDA96H   CODE     ---       TM11_IRQHandler
      00FFDD01H   CODE     ---       TM1_IRQHandler
      00FFDD3FH   CODE     ---       TM2_IRQHandler
      00FFDD7DH   CODE     ---       TM3_IRQHandler
L251 LINKER/LOCATER V4.66.93.0                                                        06/12/2025  20:04:03  PAGE 34


      00FFDDBBH   CODE     ---       TM4_IRQHandler
*SFR* 00000089H   DATA     BYTE      TMOD
      00FFBF37H   CODE     ---       to_init
*SFR* 00000088H.4 DATA     BIT       TR0
*SFR* 00000088H.6 DATA     BIT       TR1
*SFR* 000000C8H.2 DATA     BIT       TR2
*SFR* 000000B0H.1 DATA     BIT       TXD
      00012518H   XDATA    ---       txt
      00012932H   XDATA    ---       uart1_irq_handler
      00012934H   XDATA    ---       uart2_irq_handler
      00012936H   XDATA    ---       uart3_irq_handler
      00012938H   XDATA    ---       uart4_irq_handler
      00FFAB74H   CODE     ---       uart_dma_init
*DEL*:00000000H   CODE     ---       uart_funciton_check
      00FF8A3CH   CODE     ---       uart_init
      00FFD5F2H   CODE     ---       uart_printf
      00FFCE2AH   CODE     ---       uart_printf_test
      00FFCA67H   CODE     ---       uart_query_byte
*DEL*:00000000H   CODE     ---       uart_read_byte
      00012BC4H   XDATA    ---       uart_rx_buff
      00FFD80BH   CODE     ---       uart_rx_interrupt
      00FFC2D3H   CODE     ---       uart_rx_start_buff
      00FFB145H   CODE     ---       uart_write_buffer
      00FFE238H   CODE     ---       uart_write_byte
      00FFD220H   CODE     ---       uart_write_string
*SFR* 000000F4H   DATA     BYTE      USBCON
      000126FFH   XDATA    ---       user_task
      000124D6H   XDATA    FLOAT     vcc
      0001219BH   XDATA    FLOAT     vertical_diff_ratio_sum
      00FF2517H   CODE     NEAR LAB  vsprintf
*SFR* 000000C1H   DATA     BYTE      WDT_CONTR
*SFR* 000000A6H   DATA     BYTE      WDTRST
      00012EDEH   XDATA    INT       wireless_type
*SFR* 000000ABH   DATA     BYTE      WKTCH
*SFR* 000000B0H.6 DATA     BIT       WR
*SFR* 000000E9H   DATA     BYTE      WTST
*DEL*:00000000H   CODE     ---       zf_sprintf



SYMBOL TABLE OF MODULE:  .\out_file\SEEKFREE (ai8051u_isr)

      VALUE       REP       CLASS    TYPE      SYMBOL NAME
      ====================================================
      ---         MODULE    ---      ---       ai8051u_isr

      00FF019BH   BLOCK     CODE     NEAR LAB  LVL=0
      00FF019BH   LINE      CODE     ---       #3
      ---         BLOCKEND  ---      ---       LVL=0

      00FF01ABH   BLOCK     CODE     NEAR LAB  LVL=0
      00FF01ABH   LINE      CODE     ---       #6
      ---         BLOCKEND  ---      ---       LVL=0

      00FF01BBH   BLOCK     CODE     NEAR LAB  LVL=0
      00FF01BBH   LINE      CODE     ---       #9
      ---         BLOCKEND  ---      ---       LVL=0

      00FF01CBH   BLOCK     CODE     NEAR LAB  LVL=0
      00FF01CBH   LINE      CODE     ---       #12
      ---         BLOCKEND  ---      ---       LVL=0

      00FF021BH   BLOCK     CODE     NEAR LAB  LVL=0
      00FF021BH   LINE      CODE     ---       #15
      ---         BLOCKEND  ---      ---       LVL=0
L251 LINKER/LOCATER V4.66.93.0                                                        06/12/2025  20:04:03  PAGE 35



      ---         MODULE    ---      ---       zf_common_clock
      00FFBA01H   PUBLIC    CODE     ---       clock_init
      00012E3EH   PUBLIC    XDATA    LONG      system_clock
      00000094H   SFRSYM    DATA     BYTE      P0M0
      000000D0H   SFRSYM    DATA     BYTE      PSW
      0000009DH   SFRSYM    DATA     BYTE      IRCBAND
      00000097H   SFRSYM    DATA     BYTE      AUXR2
      000000EAH   SFRSYM    DATA     BYTE      CKCON
      000000EFH   SFRSYM    DATA     BYTE      AUXINTIF
      000000FDH   SFRSYM    DATA     BYTE      S4CON
      000000ACH   SFRSYM    DATA     BYTE      S3CON
      0000009AH   SFRSYM    DATA     BYTE      S2CON
      000000B7H   SFRSYM    DATA     BYTE      IPH
      000000CDH   SFRSYM    DATA     BYTE      SPSTAT
      000000DDH   SFRSYM    DATA     BYTE      T4T3M
      000000C1H   SFRSYM    DATA     BYTE      WDT_CONTR
      000000E9H   SFRSYM    DATA     BYTE      WTST
      000000DFH   SFRSYM    DATA     BYTE      IP3
      000000F4H   SFRSYM    DATA     BYTE      USBCON
      000000B5H   SFRSYM    DATA     BYTE      IP2
      000000FFH   SFRSYM    DATA     BYTE      RSTCFG
      000000C7H   SFRSYM    DATA     BYTE      IAP_CONTR
      0000008EH   SFRSYM    DATA     BYTE      AUXR
      000000AFH   SFRSYM    DATA     BYTE      IE2
      00000088H   SFRSYM    DATA     BYTE      TCON
      00000089H   SFRSYM    DATA     BYTE      TMOD
      00000098H   SFRSYM    DATA     BYTE      SCON
      00000087H   SFRSYM    DATA     BYTE      PCON
      000000BCH   SFRSYM    DATA     BYTE      ADC_CONTR
      000000D1H   SFRSYM    DATA     BYTE      PSW1
      000000E7H   SFRSYM    DATA     BYTE      CMPCR2
      000000E6H   SFRSYM    DATA     BYTE      CMPCR1
      000000DEH   SFRSYM    DATA     BYTE      ADCCFG
      000000B8H   SFRSYM    DATA     BYTE      IP
      0000008FH   SFRSYM    DATA     BYTE      INTCLKO
      000000EEH   SFRSYM    DATA     BYTE      IP3H
      000000B6H   SFRSYM    DATA     BYTE      IP2H
      000000BFH   SFRSYM    DATA     BYTE      P_SW4
      000000A8H   SFRSYM    DATA     BYTE      IE
      000000BBH   SFRSYM    DATA     BYTE      P_SW3
      000000BAH   SFRSYM    DATA     BYTE      P_SW2
      000000A2H   SFRSYM    DATA     BYTE      P_SW1
      000000CEH   SFRSYM    DATA     BYTE      SPCTL
      000000F8H   SFRSYM    DATA     BYTE      P7
      000000E1H   SFRSYM    DATA     BYTE      P7M1
      000000E8H   SFRSYM    DATA     BYTE      P6
      000000C8H   SFRSYM    DATA     BYTE      P5
      000000CBH   SFRSYM    DATA     BYTE      P6M1
      000000E2H   SFRSYM    DATA     BYTE      P7M0
      000000C0H   SFRSYM    DATA     BYTE      P4
      000000C9H   SFRSYM    DATA     BYTE      P5M1
      000000CCH   SFRSYM    DATA     BYTE      P6M0
      000000ABH   SFRSYM    DATA     BYTE      WKTCH
      000000B0H   SFRSYM    DATA     BYTE      P3
      000000B3H   SFRSYM    DATA     BYTE      P4M1
      000000CAH   SFRSYM    DATA     BYTE      P5M0
      000000A0H   SFRSYM    DATA     BYTE      P2
      000000B1H   SFRSYM    DATA     BYTE      P3M1
      000000B4H   SFRSYM    DATA     BYTE      P4M0
      00000090H   SFRSYM    DATA     BYTE      P1
      00000095H   SFRSYM    DATA     BYTE      P2M1
      000000B2H   SFRSYM    DATA     BYTE      P3M0
      00000080H   SFRSYM    DATA     BYTE      P0
      00000091H   SFRSYM    DATA     BYTE      P1M1
L251 LINKER/LOCATER V4.66.93.0                                                        06/12/2025  20:04:03  PAGE 36


      00000096H   SFRSYM    DATA     BYTE      P2M0
      00000092H   SFRSYM    DATA     BYTE      P1M0
      00000093H   SFRSYM    DATA     BYTE      P0M1

      00FFBA01H   BLOCK     CODE     ---       LVL=0
      00012E42H   SYMBOL    XDATA    DWORD     clock
      00FFBA01H   LINE      CODE     ---       #47
      00FFBA0BH   LINE      CODE     ---       #49
      00FFBA0EH   LINE      CODE     ---       #50
      00FFBA11H   LINE      CODE     ---       #51
      00FFBA14H   LINE      CODE     ---       #54
      00FFBA21H   LINE      CODE     ---       #55
      00FFBA2FH   LINE      CODE     ---       #56
      00FFBA3BH   LINE      CODE     ---       #57
      00FFBA48H   LINE      CODE     ---       #58
      00FFBA54H   LINE      CODE     ---       #60
      00FFBA57H   LINE      CODE     ---       #63
      00FFBA6BH   LINE      CODE     ---       #65
      00FFBA6EH   LINE      CODE     ---       #66
      00FFBA71H   LINE      CODE     ---       #67
      00FFBA74H   LINE      CODE     ---       #68
      00FFBA77H   LINE      CODE     ---       #69
      00FFBA7AH   LINE      CODE     ---       #70
      00FFBA7DH   LINE      CODE     ---       #71
      00FFBA80H   LINE      CODE     ---       #72
      00FFBA83H   LINE      CODE     ---       #73
      00FFBA86H   LINE      CODE     ---       #74
      00FFBA89H   LINE      CODE     ---       #75
      00FFBA8CH   LINE      CODE     ---       #76
      00FFBA8FH   LINE      CODE     ---       #77
      00FFBA92H   LINE      CODE     ---       #78
      00FFBA95H   LINE      CODE     ---       #79
      00FFBA98H   LINE      CODE     ---       #80
      00FFBA9BH   LINE      CODE     ---       #83
      00FFBA9EH   LINE      CODE     ---       #84
      00FFBAA1H   LINE      CODE     ---       #85
      00FFBAA4H   LINE      CODE     ---       #86
      00FFBAA7H   LINE      CODE     ---       #87
      00FFBAAAH   LINE      CODE     ---       #88
      00FFBAADH   LINE      CODE     ---       #89
      00FFBAB0H   LINE      CODE     ---       #90
      00FFBAB3H   LINE      CODE     ---       #91
      00FFBAB6H   LINE      CODE     ---       #92
      00FFBAB9H   LINE      CODE     ---       #93
      00FFBAC5H   LINE      CODE     ---       #94
      00FFBAD1H   LINE      CODE     ---       #96
      00FFBADDH   LINE      CODE     ---       #97
      00FFBAE9H   LINE      CODE     ---       #100
      00FFBAECH   LINE      CODE     ---       #101
      ---         BLOCKEND  ---      ---       LVL=0

      ---         MODULE    ---      ---       zf_common_debug
      00FFDE74H   PUBLIC    CODE     ---       debug_interrupr_handler
      00FFC76FH   PUBLIC    CODE     ---       debug_init
      00FFDA48H   PUBLIC    CODE     ---       debug_read_buffer
      00FFD286H   PUBLIC    CODE     ---       debug_send_buffer
      00FFE2B1H   PUBLIC    CODE     ---       putchar
      0001264EH   PUBLIC    XDATA    ---       debug_uart_buffer
      0001268FH   PUBLIC    XDATA    ---       debug_uart_fifo
      000000D0H   SFRSYM    DATA     BYTE      PSW
      0000009DH   SFRSYM    DATA     BYTE      IRCBAND
      00000097H   SFRSYM    DATA     BYTE      AUXR2
      000000EFH   SFRSYM    DATA     BYTE      AUXINTIF
      000000FDH   SFRSYM    DATA     BYTE      S4CON
      000000ACH   SFRSYM    DATA     BYTE      S3CON
L251 LINKER/LOCATER V4.66.93.0                                                        06/12/2025  20:04:03  PAGE 37


      0000009AH   SFRSYM    DATA     BYTE      S2CON
      000000B7H   SFRSYM    DATA     BYTE      IPH
      000000CDH   SFRSYM    DATA     BYTE      SPSTAT
      000000DDH   SFRSYM    DATA     BYTE      T4T3M
      000000C1H   SFRSYM    DATA     BYTE      WDT_CONTR
      000000DFH   SFRSYM    DATA     BYTE      IP3
      000000F4H   SFRSYM    DATA     BYTE      USBCON
      000000B5H   SFRSYM    DATA     BYTE      IP2
      000000FFH   SFRSYM    DATA     BYTE      RSTCFG
      000000C7H   SFRSYM    DATA     BYTE      IAP_CONTR
      0000008EH   SFRSYM    DATA     BYTE      AUXR
      000000AFH   SFRSYM    DATA     BYTE      IE2
      00000088H   SFRSYM    DATA     BYTE      TCON
      00000089H   SFRSYM    DATA     BYTE      TMOD
      00000098H   SFRSYM    DATA     BYTE      SCON
      00000087H   SFRSYM    DATA     BYTE      PCON
      000000BCH   SFRSYM    DATA     BYTE      ADC_CONTR
      000000D1H   SFRSYM    DATA     BYTE      PSW1
      000000E7H   SFRSYM    DATA     BYTE      CMPCR2
      000000E6H   SFRSYM    DATA     BYTE      CMPCR1
      000000DEH   SFRSYM    DATA     BYTE      ADCCFG
      000000B8H   SFRSYM    DATA     BYTE      IP
      0000008FH   SFRSYM    DATA     BYTE      INTCLKO
      000000EEH   SFRSYM    DATA     BYTE      IP3H
      000000B6H   SFRSYM    DATA     BYTE      IP2H
      000000BFH   SFRSYM    DATA     BYTE      P_SW4
      000000A8H   SFRSYM    DATA     BYTE      IE
      000000BBH   SFRSYM    DATA     BYTE      P_SW3
      000000BAH   SFRSYM    DATA     BYTE      P_SW2
      000000A2H   SFRSYM    DATA     BYTE      P_SW1
      000000CEH   SFRSYM    DATA     BYTE      SPCTL
      000000F8H   SFRSYM    DATA     BYTE      P7
      000000E8H   SFRSYM    DATA     BYTE      P6
      000000C8H   SFRSYM    DATA     BYTE      P5
      000000C0H   SFRSYM    DATA     BYTE      P4
      000000ABH   SFRSYM    DATA     BYTE      WKTCH
      000000B0H   SFRSYM    DATA     BYTE      P3
      000000A0H   SFRSYM    DATA     BYTE      P2
      00000090H   SFRSYM    DATA     BYTE      P1
      00000080H   SFRSYM    DATA     BYTE      P0
      0001268EH   SYMBOL    XDATA    BYTE      zf_debug_assert_enable
      000126A6H   SYMBOL    XDATA    BYTE      zf_debug_init_flag

      00FFD286H   BLOCK     CODE     ---       LVL=0
      00012D02H   SYMBOL    XDATA    ---       buff
      00012D06H   SYMBOL    XDATA    DWORD     len
      00FFD286H   LINE      CODE     ---       #239
      00FFD29AH   LINE      CODE     ---       #241
      00FFD2AAH   LINE      CODE     ---       #243
      00FFD2BDH   LINE      CODE     ---       #244
      00FFD2CDH   LINE      CODE     ---       #245
      00FFD2CDH   LINE      CODE     ---       #248
      00FFD2E8H   LINE      CODE     ---       #249
      00FFD2E8H   LINE      CODE     ---       #251
      00FFD2EAH   LINE      CODE     ---       #252
      ---         BLOCKEND  ---      ---       LVL=0

      00FFDA48H   BLOCK     CODE     ---       LVL=0
      00012D0AH   SYMBOL    XDATA    ---       buff
      00012D0EH   SYMBOL    XDATA    DWORD     len
      00FFDA48H   LINE      CODE     ---       #264
      00FFDA5CH   LINE      CODE     ---       #266
      00FFDA8BH   LINE      CODE     ---       #268
      00FFDA95H   LINE      CODE     ---       #269
      ---         BLOCKEND  ---      ---       LVL=0
L251 LINKER/LOCATER V4.66.93.0                                                        06/12/2025  20:04:03  PAGE 38



      00FFDE74H   BLOCK     CODE     ---       LVL=0
      00012EEAH   SYMBOL    XDATA    BYTE      dat
      00FFDE74H   LINE      CODE     ---       #280
      00FFDE78H   LINE      CODE     ---       #282
      00FFDE7EH   LINE      CODE     ---       #284
      00FFDE8BH   LINE      CODE     ---       #285
      00FFDEACH   LINE      CODE     ---       #286
      ---         BLOCKEND  ---      ---       LVL=0

      00FFE2B1H   BLOCK     CODE     ---       LVL=0
      00012EEBH   SYMBOL    XDATA    CHAR      c
      00FFE2B1H   LINE      CODE     ---       #302
      00FFE2B5H   LINE      CODE     ---       #304
      00FFE2BEH   LINE      CODE     ---       #306
      00FFE2C2H   LINE      CODE     ---       #307
      ---         BLOCKEND  ---      ---       LVL=0

      00FFC76FH   BLOCK     CODE     ---       LVL=0
      00012EECH   SYMBOL    XDATA    BYTE      uartx
      00FFC76FH   LINE      CODE     ---       #488
      00FFC76FH   LINE      CODE     ---       #489
      00FFC76FH   LINE      CODE     ---       #490
      00FFC774H   LINE      CODE     ---       #496
      00FFC78FH   LINE      CODE     ---       #503
      00FFC7BCH   LINE      CODE     ---       #504
      00FFC7C3H   LINE      CODE     ---       #507
      00FFC7C9H   LINE      CODE     ---       #509
      00FFC7D3H   LINE      CODE     ---       #510
      00FFC7D5H   LINE      CODE     ---       #511
      00FFC7DCH   LINE      CODE     ---       #513
      00FFC7E6H   LINE      CODE     ---       #514
      00FFC7E8H   LINE      CODE     ---       #515
      00FFC7EFH   LINE      CODE     ---       #517
      00FFC7F9H   LINE      CODE     ---       #518
      00FFC7FBH   LINE      CODE     ---       #519
      00FFC802H   LINE      CODE     ---       #521
      00FFC80CH   LINE      CODE     ---       #522
      ---         BLOCKEND  ---      ---       LVL=0

      ---         MODULE    ---      ---       zf_common_fifo
      00FF4C48H   PUBLIC    CODE     ---       fifo_read_buffer
      00FF470DH   PUBLIC    CODE     ---       fifo_write_buffer
      00FFE08BH   PUBLIC    CODE     ---       fifo_used
      00FFC385H   PUBLIC    CODE     ---       fifo_init
      00012A5FH   PUBLIC    XDATA    BYTE      ?fifo_write_buffer?BYTE
      000129BCH   PUBLIC    XDATA    BYTE      ?fifo_read_buffer?BYTE
      00012AC4H   PUBLIC    XDATA    BYTE      ?fifo_init?BYTE
      000000D0H   SFRSYM    DATA     BYTE      PSW
      0000009DH   SFRSYM    DATA     BYTE      IRCBAND
      00000097H   SFRSYM    DATA     BYTE      AUXR2
      000000EFH   SFRSYM    DATA     BYTE      AUXINTIF
      000000FDH   SFRSYM    DATA     BYTE      S4CON
      000000ACH   SFRSYM    DATA     BYTE      S3CON
      0000009AH   SFRSYM    DATA     BYTE      S2CON
      000000B7H   SFRSYM    DATA     BYTE      IPH
      000000CDH   SFRSYM    DATA     BYTE      SPSTAT
      000000DDH   SFRSYM    DATA     BYTE      T4T3M
      000000C1H   SFRSYM    DATA     BYTE      WDT_CONTR
      000000DFH   SFRSYM    DATA     BYTE      IP3
      000000F4H   SFRSYM    DATA     BYTE      USBCON
      000000B5H   SFRSYM    DATA     BYTE      IP2
      000000FFH   SFRSYM    DATA     BYTE      RSTCFG
      000000C7H   SFRSYM    DATA     BYTE      IAP_CONTR
      0000008EH   SFRSYM    DATA     BYTE      AUXR
L251 LINKER/LOCATER V4.66.93.0                                                        06/12/2025  20:04:03  PAGE 39


      000000AFH   SFRSYM    DATA     BYTE      IE2
      00000088H   SFRSYM    DATA     BYTE      TCON
      00000089H   SFRSYM    DATA     BYTE      TMOD
      00000098H   SFRSYM    DATA     BYTE      SCON
      00000087H   SFRSYM    DATA     BYTE      PCON
      000000BCH   SFRSYM    DATA     BYTE      ADC_CONTR
      000000D1H   SFRSYM    DATA     BYTE      PSW1
      000000E7H   SFRSYM    DATA     BYTE      CMPCR2
      000000E6H   SFRSYM    DATA     BYTE      CMPCR1
      000000DEH   SFRSYM    DATA     BYTE      ADCCFG
      000000B8H   SFRSYM    DATA     BYTE      IP
      0000008FH   SFRSYM    DATA     BYTE      INTCLKO
      000000EEH   SFRSYM    DATA     BYTE      IP3H
      000000B6H   SFRSYM    DATA     BYTE      IP2H
      000000BFH   SFRSYM    DATA     BYTE      P_SW4
      000000A8H   SFRSYM    DATA     BYTE      IE
      000000BBH   SFRSYM    DATA     BYTE      P_SW3
      000000BAH   SFRSYM    DATA     BYTE      P_SW2
      000000A2H   SFRSYM    DATA     BYTE      P_SW1
      000000CEH   SFRSYM    DATA     BYTE      SPCTL
      000000F8H   SFRSYM    DATA     BYTE      P7
      000000E8H   SFRSYM    DATA     BYTE      P6
      000000C8H   SFRSYM    DATA     BYTE      P5
      000000C0H   SFRSYM    DATA     BYTE      P4
      000000ABH   SFRSYM    DATA     BYTE      WKTCH
      000000B0H   SFRSYM    DATA     BYTE      P3
      000000A0H   SFRSYM    DATA     BYTE      P2
      00000090H   SFRSYM    DATA     BYTE      P1
      00000080H   SFRSYM    DATA     BYTE      P0
      00FFC80DH   SYMBOL    CODE     ---       fifo_head_offset
      00FFC8A4H   SYMBOL    CODE     ---       fifo_end_offset

      00FFC80DH   BLOCK     CODE     ---       LVL=0
      00012D12H   SYMBOL    XDATA    ---       fifo
      00012D16H   SYMBOL    XDATA    DWORD     offset
      00FFC80DH   LINE      CODE     ---       #49
      00FFC821H   LINE      CODE     ---       #51
      00FFC849H   LINE      CODE     ---       #53
      00FFC84BH   LINE      CODE     ---       #55
      00FFC87BH   LINE      CODE     ---       #56
      00FFC8A3H   LINE      CODE     ---       #57
      ---         BLOCKEND  ---      ---       LVL=0

      00FFC8A4H   BLOCK     CODE     ---       LVL=0
      00012D1AH   SYMBOL    XDATA    ---       fifo
      00012D1EH   SYMBOL    XDATA    DWORD     offset
      00FFC8A4H   LINE      CODE     ---       #67
      00FFC8B8H   LINE      CODE     ---       #69
      00FFC8E0H   LINE      CODE     ---       #71
      00FFC8E2H   LINE      CODE     ---       #73
      00FFC912H   LINE      CODE     ---       #74
      00FFC93AH   LINE      CODE     ---       #75
      ---         BLOCKEND  ---      ---       LVL=0
      00012DB6H   SYMBOL    XDATA    ---       fifo
      00012DBAH   SYMBOL    XDATA    INT       return_state

      00FFE08BH   BLOCK     CODE     ---       LVL=0
      00012E46H   SYMBOL    XDATA    ---       fifo
      00FFE08BH   LINE      CODE     ---       #117
      00FFE095H   LINE      CODE     ---       #120
      00FFE0BBH   LINE      CODE     ---       #121
      ---         BLOCKEND  ---      ---       LVL=0

      00FF470DH   BLOCK     CODE     ---       LVL=0
      00012A5FH   SYMBOL    XDATA    ---       fifo
L251 LINKER/LOCATER V4.66.93.0                                                        06/12/2025  20:04:03  PAGE 40


      00012A63H   SYMBOL    XDATA    ---       dat
      00012A67H   SYMBOL    XDATA    DWORD     length
      00FF4721H   BLOCK     CODE     NEAR LAB  LVL=1
      00012A6BH   SYMBOL    XDATA    INT       return_state
      00012A6DH   SYMBOL    XDATA    DWORD     temp_length
      ---         BLOCKEND  ---      ---       LVL=1
      00FF470DH   LINE      CODE     ---       #175
      00FF4721H   LINE      CODE     ---       #176
      00FF4721H   LINE      CODE     ---       #178
      00FF4729H   LINE      CODE     ---       #179
      00FF4735H   LINE      CODE     ---       #181
      00FF4735H   LINE      CODE     ---       #183
      00FF4743H   LINE      CODE     ---       #185
      00FF474DH   LINE      CODE     ---       #186
      00FF4750H   LINE      CODE     ---       #187
      00FF4750H   LINE      CODE     ---       #188
      00FF4765H   LINE      CODE     ---       #190
      00FF476FH   LINE      CODE     ---       #191
      00FF4772H   LINE      CODE     ---       #192
      00FF4772H   LINE      CODE     ---       #193
      00FF4784H   LINE      CODE     ---       #195
      00FF47A7H   LINE      CODE     ---       #197
      00FF47D7H   LINE      CODE     ---       #199
      00FF47F2H   LINE      CODE     ---       #201
      00FF4815H   LINE      CODE     ---       #203
      00FF4815H   LINE      CODE     ---       #205
      00FF4856H   LINE      CODE     ---       #208
      00FF486DH   LINE      CODE     ---       #209
      00FF48CCH   LINE      CODE     ---       #213
      00FF48EFH   LINE      CODE     ---       #214
      00FF48F2H   LINE      CODE     ---       #215
      00FF48F2H   LINE      CODE     ---       #217
      00FF4937H   LINE      CODE     ---       #220
      00FF494EH   LINE      CODE     ---       #221
      00FF49AFH   LINE      CODE     ---       #225
      00FF49D2H   LINE      CODE     ---       #226
      00FF49D5H   LINE      CODE     ---       #227
      00FF49D5H   LINE      CODE     ---       #229
      00FF4A1EH   LINE      CODE     ---       #232
      00FF4A35H   LINE      CODE     ---       #233
      00FF4A9CH   LINE      CODE     ---       #237
      00FF4ABFH   LINE      CODE     ---       #238
      00FF4ABFH   LINE      CODE     ---       #239
      00FF4ABFH   LINE      CODE     ---       #240
      00FF4AC2H   LINE      CODE     ---       #243
      00FF4AE2H   LINE      CODE     ---       #245
      00FF4AE2H   LINE      CODE     ---       #247
      00FF4B23H   LINE      CODE     ---       #250
      00FF4B3AH   LINE      CODE     ---       #251
      00FF4B3DH   LINE      CODE     ---       #252
      00FF4B3DH   LINE      CODE     ---       #254
      00FF4B82H   LINE      CODE     ---       #257
      00FF4B99H   LINE      CODE     ---       #258
      00FF4B9BH   LINE      CODE     ---       #259
      00FF4B9BH   LINE      CODE     ---       #261
      00FF4BE4H   LINE      CODE     ---       #264
      00FF4BFBH   LINE      CODE     ---       #265
      00FF4BFBH   LINE      CODE     ---       #266
      00FF4BFBH   LINE      CODE     ---       #267
      00FF4BFBH   LINE      CODE     ---       #269
      00FF4C23H   LINE      CODE     ---       #270
      00FF4C25H   LINE      CODE     ---       #273
      00FF4C2FH   LINE      CODE     ---       #274
      00FF4C2FH   LINE      CODE     ---       #275
      00FF4C41H   LINE      CODE     ---       #276
L251 LINKER/LOCATER V4.66.93.0                                                        06/12/2025  20:04:03  PAGE 41


      00FF4C41H   LINE      CODE     ---       #278
      00FF4C47H   LINE      CODE     ---       #279
      ---         BLOCKEND  ---      ---       LVL=0

      00FF4C48H   BLOCK     CODE     ---       LVL=0
      000129BCH   SYMBOL    XDATA    ---       fifo
      000129C0H   SYMBOL    XDATA    ---       dat
      000129C4H   SYMBOL    XDATA    ---       length
      000129C8H   SYMBOL    XDATA    INT       flag
      00FF4C5CH   BLOCK     CODE     NEAR LAB  LVL=1
      000129CAH   SYMBOL    XDATA    INT       return_state
      000129CCH   SYMBOL    XDATA    DWORD     temp_length
      000129D0H   SYMBOL    XDATA    DWORD     fifo_data_length
      ---         BLOCKEND  ---      ---       LVL=1
      00FF4C48H   LINE      CODE     ---       #352
      00FF4C5CH   LINE      CODE     ---       #353
      00FF4C5CH   LINE      CODE     ---       #356
      00FF4C64H   LINE      CODE     ---       #357
      00FF4C70H   LINE      CODE     ---       #358
      00FF4C7CH   LINE      CODE     ---       #360
      00FF4C7CH   LINE      CODE     ---       #362
      00FF4C8AH   LINE      CODE     ---       #364
      00FF4C94H   LINE      CODE     ---       #365
      00FF4C97H   LINE      CODE     ---       #368
      00FF4CACH   LINE      CODE     ---       #370
      00FF4CC7H   LINE      CODE     ---       #371
      00FF4CD1H   LINE      CODE     ---       #372
      00FF4CD4H   LINE      CODE     ---       #373
      00FF4CD4H   LINE      CODE     ---       #375
      00FF4CEBH   LINE      CODE     ---       #376
      00FF4D0AH   LINE      CODE     ---       #378
      00FF4D25H   LINE      CODE     ---       #379
      00FF4D2FH   LINE      CODE     ---       #380
      00FF4D3DH   LINE      CODE     ---       #382
      00FF4D4FH   LINE      CODE     ---       #383
      00FF4D52H   LINE      CODE     ---       #384
      00FF4D52H   LINE      CODE     ---       #387
      00FF4D64H   LINE      CODE     ---       #388
      00FF4D94H   LINE      CODE     ---       #389
      00FF4DB6H   LINE      CODE     ---       #391
      00FF4DD6H   LINE      CODE     ---       #393
      00FF4E23H   LINE      CODE     ---       #394
      00FF4E74H   LINE      CODE     ---       #395
      00FF4EC6H   LINE      CODE     ---       #396
      00FF4EC6H   LINE      CODE     ---       #397
      00FF4EC9H   LINE      CODE     ---       #400
      00FF4EECH   LINE      CODE     ---       #402
      00FF4EECH   LINE      CODE     ---       #404
      00FF4F2FH   LINE      CODE     ---       #405
      00FF4F7DH   LINE      CODE     ---       #406
      00FF4F80H   LINE      CODE     ---       #407
      00FF4F80H   LINE      CODE     ---       #409
      00FF4FC7H   LINE      CODE     ---       #410
      00FF5017H   LINE      CODE     ---       #411
      00FF501AH   LINE      CODE     ---       #412
      00FF501AH   LINE      CODE     ---       #414
      00FF5065H   LINE      CODE     ---       #415
      00FF50B9H   LINE      CODE     ---       #416
      00FF50B9H   LINE      CODE     ---       #417
      00FF50B9H   LINE      CODE     ---       #418
      00FF50B9H   LINE      CODE     ---       #419
      00FF50CBH   LINE      CODE     ---       #420
      00FF50CBH   LINE      CODE     ---       #422
      00FF50D8H   LINE      CODE     ---       #424
      00FF50E8H   LINE      CODE     ---       #426
L251 LINKER/LOCATER V4.66.93.0                                                        06/12/2025  20:04:03  PAGE 42


      00FF50F2H   LINE      CODE     ---       #427
      00FF50F4H   LINE      CODE     ---       #428
      00FF50F4H   LINE      CODE     ---       #429
      00FF5106H   LINE      CODE     ---       #430
      00FF5124H   LINE      CODE     ---       #431
      00FF5153H   LINE      CODE     ---       #432
      00FF5165H   LINE      CODE     ---       #433
      00FF5165H   LINE      CODE     ---       #436
      00FF516BH   LINE      CODE     ---       #437
      ---         BLOCKEND  ---      ---       LVL=0

      00FFC385H   BLOCK     CODE     ---       LVL=0
      00012AC4H   SYMBOL    XDATA    ---       fifo
      00012AC8H   SYMBOL    XDATA    INT       type
      00012ACAH   SYMBOL    XDATA    ---       buffer_addr
      00012ACEH   SYMBOL    XDATA    DWORD     siz
      00FFC385H   LINE      CODE     ---       #545
      00FFC395H   LINE      CODE     ---       #548
      00FFC395H   LINE      CODE     ---       #550
      00FFC3B1H   LINE      CODE     ---       #551
      00FFC3BFH   LINE      CODE     ---       #552
      00FFC3D3H   LINE      CODE     ---       #553
      00FFC3E7H   LINE      CODE     ---       #554
      00FFC3FBH   LINE      CODE     ---       #555
      00FFC417H   LINE      CODE     ---       #556
      00FFC433H   LINE      CODE     ---       #557
      00FFC433H   LINE      CODE     ---       #558
      00FFC435H   LINE      CODE     ---       #559
      ---         BLOCKEND  ---      ---       LVL=0

      ---         MODULE    ---      ---       zf_common_font
      00FF3B8DH   PUBLIC    CODE     ---       tft_ascii
      000000D0H   SFRSYM    DATA     BYTE      PSW
      0000009DH   SFRSYM    DATA     BYTE      IRCBAND
      00000097H   SFRSYM    DATA     BYTE      AUXR2
      000000EFH   SFRSYM    DATA     BYTE      AUXINTIF
      000000FDH   SFRSYM    DATA     BYTE      S4CON
      000000ACH   SFRSYM    DATA     BYTE      S3CON
      0000009AH   SFRSYM    DATA     BYTE      S2CON
      000000B7H   SFRSYM    DATA     BYTE      IPH
      000000CDH   SFRSYM    DATA     BYTE      SPSTAT
      000000DDH   SFRSYM    DATA     BYTE      T4T3M
      000000C1H   SFRSYM    DATA     BYTE      WDT_CONTR
      000000DFH   SFRSYM    DATA     BYTE      IP3
      000000F4H   SFRSYM    DATA     BYTE      USBCON
      000000B5H   SFRSYM    DATA     BYTE      IP2
      000000FFH   SFRSYM    DATA     BYTE      RSTCFG
      000000C7H   SFRSYM    DATA     BYTE      IAP_CONTR
      0000008EH   SFRSYM    DATA     BYTE      AUXR
      000000AFH   SFRSYM    DATA     BYTE      IE2
      00000088H   SFRSYM    DATA     BYTE      TCON
      00000089H   SFRSYM    DATA     BYTE      TMOD
      00000098H   SFRSYM    DATA     BYTE      SCON
      00000087H   SFRSYM    DATA     BYTE      PCON
      000000BCH   SFRSYM    DATA     BYTE      ADC_CONTR
      000000D1H   SFRSYM    DATA     BYTE      PSW1
      000000E7H   SFRSYM    DATA     BYTE      CMPCR2
      000000E6H   SFRSYM    DATA     BYTE      CMPCR1
      000000DEH   SFRSYM    DATA     BYTE      ADCCFG
      000000B8H   SFRSYM    DATA     BYTE      IP
      0000008FH   SFRSYM    DATA     BYTE      INTCLKO
      000000EEH   SFRSYM    DATA     BYTE      IP3H
      000000B6H   SFRSYM    DATA     BYTE      IP2H
      000000BFH   SFRSYM    DATA     BYTE      P_SW4
      000000A8H   SFRSYM    DATA     BYTE      IE
L251 LINKER/LOCATER V4.66.93.0                                                        06/12/2025  20:04:03  PAGE 43


      000000BBH   SFRSYM    DATA     BYTE      P_SW3
      000000BAH   SFRSYM    DATA     BYTE      P_SW2
      000000A2H   SFRSYM    DATA     BYTE      P_SW1
      000000CEH   SFRSYM    DATA     BYTE      SPCTL
      000000F8H   SFRSYM    DATA     BYTE      P7
      000000E8H   SFRSYM    DATA     BYTE      P6
      000000C8H   SFRSYM    DATA     BYTE      P5
      000000C0H   SFRSYM    DATA     BYTE      P4
      000000ABH   SFRSYM    DATA     BYTE      WKTCH
      000000B0H   SFRSYM    DATA     BYTE      P3
      000000A0H   SFRSYM    DATA     BYTE      P2
      00000090H   SFRSYM    DATA     BYTE      P1
      00000080H   SFRSYM    DATA     BYTE      P0

      ---         MODULE    ---      ---       zf_common_function
      00012617H   PUBLIC    XDATA    BYTE      ?zf_sprintf?BYTE
      000000D0H   SFRSYM    DATA     BYTE      PSW
      0000009DH   SFRSYM    DATA     BYTE      IRCBAND
      00000097H   SFRSYM    DATA     BYTE      AUXR2
      000000EFH   SFRSYM    DATA     BYTE      AUXINTIF
      000000FDH   SFRSYM    DATA     BYTE      S4CON
      000000ACH   SFRSYM    DATA     BYTE      S3CON
      0000009AH   SFRSYM    DATA     BYTE      S2CON
      000000B7H   SFRSYM    DATA     BYTE      IPH
      000000CDH   SFRSYM    DATA     BYTE      SPSTAT
      000000DDH   SFRSYM    DATA     BYTE      T4T3M
      000000C1H   SFRSYM    DATA     BYTE      WDT_CONTR
      000000DFH   SFRSYM    DATA     BYTE      IP3
      000000F4H   SFRSYM    DATA     BYTE      USBCON
      000000B5H   SFRSYM    DATA     BYTE      IP2
      000000FFH   SFRSYM    DATA     BYTE      RSTCFG
      000000C7H   SFRSYM    DATA     BYTE      IAP_CONTR
      0000008EH   SFRSYM    DATA     BYTE      AUXR
      000000AFH   SFRSYM    DATA     BYTE      IE2
      00000088H   SFRSYM    DATA     BYTE      TCON
      00000089H   SFRSYM    DATA     BYTE      TMOD
      00000098H   SFRSYM    DATA     BYTE      SCON
      00000087H   SFRSYM    DATA     BYTE      PCON
      000000BCH   SFRSYM    DATA     BYTE      ADC_CONTR
      000000D1H   SFRSYM    DATA     BYTE      PSW1
      000000E7H   SFRSYM    DATA     BYTE      CMPCR2
      000000E6H   SFRSYM    DATA     BYTE      CMPCR1
      000000DEH   SFRSYM    DATA     BYTE      ADCCFG
      000000B8H   SFRSYM    DATA     BYTE      IP
      0000008FH   SFRSYM    DATA     BYTE      INTCLKO
      000000EEH   SFRSYM    DATA     BYTE      IP3H
      000000B6H   SFRSYM    DATA     BYTE      IP2H
      000000BFH   SFRSYM    DATA     BYTE      P_SW4
      000000A8H   SFRSYM    DATA     BYTE      IE
      000000BBH   SFRSYM    DATA     BYTE      P_SW3
      000000BAH   SFRSYM    DATA     BYTE      P_SW2
      000000A2H   SFRSYM    DATA     BYTE      P_SW1
      000000CEH   SFRSYM    DATA     BYTE      SPCTL
      000000F8H   SFRSYM    DATA     BYTE      P7
      000000E8H   SFRSYM    DATA     BYTE      P6
      000000C8H   SFRSYM    DATA     BYTE      P5
      000000C0H   SFRSYM    DATA     BYTE      P4
      000000ABH   SFRSYM    DATA     BYTE      WKTCH
      000000B0H   SFRSYM    DATA     BYTE      P3
      000000A0H   SFRSYM    DATA     BYTE      P2
      00000090H   SFRSYM    DATA     BYTE      P1
      00000080H   SFRSYM    DATA     BYTE      P0
      00FFACF9H   SYMBOL    CODE     ---       number_conversion_ascii
      00FFF6C0H   SYMBOL    HCONST   ---       ?tpl?0001
      00012D22H   SYMBOL    XDATA    DWORD     num1
L251 LINKER/LOCATER V4.66.93.0                                                        06/12/2025  20:04:03  PAGE 44


      00012D26H   SYMBOL    XDATA    DWORD     num2
      00012E4AH   SYMBOL    XDATA    LONG      t
      00012CC3H   SYMBOL    XDATA    ---       str
      00012CC7H   SYMBOL    XDATA    BYTE      sign
      00012CC8H   SYMBOL    XDATA    LONG      temp
      0001294EH   SYMBOL    XDATA    ---       str
      00012952H   SYMBOL    XDATA    LONG      number
      00012956H   SYMBOL    XDATA    ---       data_temp
      00012966H   SYMBOL    XDATA    BYTE      temp_bit
      00012967H   SYMBOL    XDATA    LONG      number_temp
      00012D2AH   SYMBOL    XDATA    ---       str
      00012D2EH   SYMBOL    XDATA    DWORD     temp
      000129A3H   SYMBOL    XDATA    ---       str
      000129A7H   SYMBOL    XDATA    DWORD     number
      000129ABH   SYMBOL    XDATA    ---       data_temp
      000129BBH   SYMBOL    XDATA    BYTE      temp_bit
      00012A83H   SYMBOL    XDATA    ---       str
      00012A87H   SYMBOL    XDATA    BYTE      sign
      00012A88H   SYMBOL    XDATA    FLOAT     temp
      00012A8CH   SYMBOL    XDATA    FLOAT     temp_point
      00012A90H   SYMBOL    XDATA    FLOAT     point_bit
      000127A4H   SYMBOL    XDATA    ---       str
      000127A8H   SYMBOL    XDATA    FLOAT     number
      000127ACH   SYMBOL    XDATA    BYTE      point_bit
      000127ADH   SYMBOL    XDATA    INT       data_int
      000127AFH   SYMBOL    XDATA    INT       data_float
      000127B1H   SYMBOL    XDATA    ---       data_temp
      000127C1H   SYMBOL    XDATA    ---       data_temp_point
      000127CDH   SYMBOL    XDATA    BYTE      temp_bit
      00012A94H   SYMBOL    XDATA    ---       str
      00012A98H   SYMBOL    XDATA    BYTE      sign
      00012A99H   SYMBOL    XDATA    FLOAT     temp
      00012A9DH   SYMBOL    XDATA    FLOAT     temp_point
      00012AA1H   SYMBOL    XDATA    FLOAT     point_bit
      0001273CH   SYMBOL    XDATA    ---       str
      00012740H   SYMBOL    XDATA    FLOAT     number
      00012744H   SYMBOL    XDATA    BYTE      point_bit
      00012745H   SYMBOL    XDATA    INT       data_int
      00012747H   SYMBOL    XDATA    INT       data_float
      00012749H   SYMBOL    XDATA    ---       data_temp
      00012761H   SYMBOL    XDATA    ---       data_temp_point
      00012773H   SYMBOL    XDATA    BYTE      temp_bit
      00012AD2H   SYMBOL    XDATA    ---       str
      00012AD6H   SYMBOL    XDATA    DWORD     str_len
      00012ADAH   SYMBOL    XDATA    DWORD     result_data
      00012ADEH   SYMBOL    XDATA    BYTE      temp
      00012ADFH   SYMBOL    XDATA    BYTE      flag
      00012848H   SYMBOL    XDATA    ---       str
      0001284CH   SYMBOL    XDATA    DWORD     number
      00012850H   SYMBOL    XDATA    ---       hex_index
      00012860H   SYMBOL    XDATA    ---       data_temp
      0001286CH   SYMBOL    XDATA    BYTE      temp_bit

      00FFACF9H   BLOCK     CODE     ---       LVL=0
      000129D4H   SYMBOL    XDATA    DWORD     dat
      000129D8H   SYMBOL    XDATA    ---       p
      000129DCH   SYMBOL    XDATA    BYTE      neg_type
      000129DDH   SYMBOL    XDATA    BYTE      radix
      00FFAD11H   BLOCK     CODE     NEAR LAB  LVL=1
      000129DEH   SYMBOL    XDATA    LONG      neg_dat
      000129E2H   SYMBOL    XDATA    DWORD     pos_dat
      000129E6H   SYMBOL    XDATA    BYTE      temp_data
      000129E7H   SYMBOL    XDATA    BYTE      valid_num
      ---         BLOCKEND  ---      ---       LVL=1
      00FFACF9H   LINE      CODE     ---       #647
L251 LINKER/LOCATER V4.66.93.0                                                        06/12/2025  20:04:03  PAGE 45


      00FFAD11H   LINE      CODE     ---       #648
      00FFAD11H   LINE      CODE     ---       #651
      00FFAD16H   LINE      CODE     ---       #652
      00FFAD1BH   LINE      CODE     ---       #654
      00FFAD24H   LINE      CODE     ---       #656
      00FFAD38H   LINE      CODE     ---       #657
      00FFAD48H   LINE      CODE     ---       #659
      00FFAD66H   LINE      CODE     ---       #660
      00FFAD66H   LINE      CODE     ---       #661
      00FFAD66H   LINE      CODE     ---       #663
      00FFAD8CH   LINE      CODE     ---       #664
      00FFADA8H   LINE      CODE     ---       #665
      00FFADAEH   LINE      CODE     ---       #667
      00FFADBCH   LINE      CODE     ---       #669
      00FFADBCH   LINE      CODE     ---       #670
      00FFADBCH   LINE      CODE     ---       #671
      00FFADCFH   LINE      CODE     ---       #672
      00FFADD1H   LINE      CODE     ---       #673
      00FFADD4H   LINE      CODE     ---       #676
      00FFADE8H   LINE      CODE     ---       #677
      00FFADE8H   LINE      CODE     ---       #679
      00FFAE03H   LINE      CODE     ---       #680
      00FFAE0CH   LINE      CODE     ---       #682
      00FFAE13H   LINE      CODE     ---       #683
      00FFAE15H   LINE      CODE     ---       #686
      00FFAE1CH   LINE      CODE     ---       #687
      00FFAE1CH   LINE      CODE     ---       #689
      00FFAE2DH   LINE      CODE     ---       #691
      00FFAE49H   LINE      CODE     ---       #692
      00FFAE4FH   LINE      CODE     ---       #694
      00FFAE5DH   LINE      CODE     ---       #696
      00FFAE5DH   LINE      CODE     ---       #697
      00FFAE5DH   LINE      CODE     ---       #698
      00FFAE70H   LINE      CODE     ---       #699
      00FFAE73H   LINE      CODE     ---       #700
      00FFAE73H   LINE      CODE     ---       #701
      00FFAE77H   LINE      CODE     ---       #702
      ---         BLOCKEND  ---      ---       LVL=0
      00012B34H   SYMBOL    XDATA    ---       d_buff
      00012B38H   SYMBOL    XDATA    DWORD     len
      00012B3CH   SYMBOL    XDATA    DWORD     i
      00012B40H   SYMBOL    XDATA    CHAR      temp_data
      00012617H   SYMBOL    XDATA    ---       buff
      0001261BH   SYMBOL    XDATA    ---       format
      0001261FH   SYMBOL    XDATA    DWORD     buff_len
      00012623H   SYMBOL    XDATA    ---       arg
      00012627H   SYMBOL    XDATA    CHAR      ret
      00012628H   SYMBOL    XDATA    CHAR      ch
      00012628H   SYMBOL    XDATA    ---       vstr
      00012649H   SYMBOL    XDATA    LONG      ival
      0001264DH   SYMBOL    XDATA    BYTE      vlen
      00012628H   SYMBOL    XDATA    ---       vstr
      00012649H   SYMBOL    XDATA    FLOAT     ival
      0001264DH   SYMBOL    XDATA    BYTE      vlen
      00012628H   SYMBOL    XDATA    ---       vstr
      00012649H   SYMBOL    XDATA    DWORD     ival
      0001264DH   SYMBOL    XDATA    BYTE      vlen
      00012628H   SYMBOL    XDATA    ---       vstr
      00012649H   SYMBOL    XDATA    DWORD     ival
      0001264DH   SYMBOL    XDATA    BYTE      vlen
      00012628H   SYMBOL    XDATA    ---       vstr
      00012649H   SYMBOL    XDATA    DWORD     ival
      0001264DH   SYMBOL    XDATA    BYTE      vlen
      00012628H   SYMBOL    XDATA    ---       pc
      00012628H   SYMBOL    XDATA    ---       vstr
L251 LINKER/LOCATER V4.66.93.0                                                        06/12/2025  20:04:03  PAGE 46


      00012649H   SYMBOL    XDATA    DWORD     ival

      ---         MODULE    ---      ---       zf_common_typedef
      00012930H   PUBLIC    XDATA    ---       tim11_irq_handler
      00012932H   PUBLIC    XDATA    ---       uart1_irq_handler
      00012934H   PUBLIC    XDATA    ---       uart2_irq_handler
      00012936H   PUBLIC    XDATA    ---       uart3_irq_handler
      00012938H   PUBLIC    XDATA    ---       uart4_irq_handler
      0001293AH   PUBLIC    XDATA    ---       tim0_irq_handler
      0001293CH   PUBLIC    XDATA    ---       int0_irq_handler
      0001293EH   PUBLIC    XDATA    ---       tim1_irq_handler
      00012940H   PUBLIC    XDATA    ---       int1_irq_handler
      00012942H   PUBLIC    XDATA    ---       tim2_irq_handler
      00012944H   PUBLIC    XDATA    ---       int2_irq_handler
      00012946H   PUBLIC    XDATA    ---       tim3_irq_handler
      00012948H   PUBLIC    XDATA    ---       int3_irq_handler
      0001294AH   PUBLIC    XDATA    ---       tim4_irq_handler
      0001294CH   PUBLIC    XDATA    ---       int4_irq_handler
      000000D0H   SFRSYM    DATA     BYTE      PSW
      0000009DH   SFRSYM    DATA     BYTE      IRCBAND
      00000097H   SFRSYM    DATA     BYTE      AUXR2
      000000EFH   SFRSYM    DATA     BYTE      AUXINTIF
      000000FDH   SFRSYM    DATA     BYTE      S4CON
      000000ACH   SFRSYM    DATA     BYTE      S3CON
      0000009AH   SFRSYM    DATA     BYTE      S2CON
      000000B7H   SFRSYM    DATA     BYTE      IPH
      000000CDH   SFRSYM    DATA     BYTE      SPSTAT
      000000DDH   SFRSYM    DATA     BYTE      T4T3M
      000000C1H   SFRSYM    DATA     BYTE      WDT_CONTR
      000000DFH   SFRSYM    DATA     BYTE      IP3
      000000F4H   SFRSYM    DATA     BYTE      USBCON
      000000B5H   SFRSYM    DATA     BYTE      IP2
      000000FFH   SFRSYM    DATA     BYTE      RSTCFG
      000000C7H   SFRSYM    DATA     BYTE      IAP_CONTR
      0000008EH   SFRSYM    DATA     BYTE      AUXR
      000000AFH   SFRSYM    DATA     BYTE      IE2
      00000088H   SFRSYM    DATA     BYTE      TCON
      00000089H   SFRSYM    DATA     BYTE      TMOD
      00000098H   SFRSYM    DATA     BYTE      SCON
      00000087H   SFRSYM    DATA     BYTE      PCON
      000000BCH   SFRSYM    DATA     BYTE      ADC_CONTR
      000000D1H   SFRSYM    DATA     BYTE      PSW1
      000000E7H   SFRSYM    DATA     BYTE      CMPCR2
      000000E6H   SFRSYM    DATA     BYTE      CMPCR1
      000000DEH   SFRSYM    DATA     BYTE      ADCCFG
      000000B8H   SFRSYM    DATA     BYTE      IP
      0000008FH   SFRSYM    DATA     BYTE      INTCLKO
      000000EEH   SFRSYM    DATA     BYTE      IP3H
      000000B6H   SFRSYM    DATA     BYTE      IP2H
      000000BFH   SFRSYM    DATA     BYTE      P_SW4
      000000A8H   SFRSYM    DATA     BYTE      IE
      000000BBH   SFRSYM    DATA     BYTE      P_SW3
      000000BAH   SFRSYM    DATA     BYTE      P_SW2
      000000A2H   SFRSYM    DATA     BYTE      P_SW1
      000000CEH   SFRSYM    DATA     BYTE      SPCTL
      000000F8H   SFRSYM    DATA     BYTE      P7
      000000E8H   SFRSYM    DATA     BYTE      P6
      000000C8H   SFRSYM    DATA     BYTE      P5
      000000C0H   SFRSYM    DATA     BYTE      P4
      000000ABH   SFRSYM    DATA     BYTE      WKTCH
      000000B0H   SFRSYM    DATA     BYTE      P3
      000000A0H   SFRSYM    DATA     BYTE      P2
      00000090H   SFRSYM    DATA     BYTE      P1
      00000080H   SFRSYM    DATA     BYTE      P0

L251 LINKER/LOCATER V4.66.93.0                                                        06/12/2025  20:04:03  PAGE 47


      ---         MODULE    ---      ---       zf_common_interrupt
      00FF0040H   PUBLIC    CODE     ---       interrupt_global_enable
      000000D0H   SFRSYM    DATA     BYTE      PSW
      0000009DH   SFRSYM    DATA     BYTE      IRCBAND
      00000097H   SFRSYM    DATA     BYTE      AUXR2
      000000EFH   SFRSYM    DATA     BYTE      AUXINTIF
      000000FDH   SFRSYM    DATA     BYTE      S4CON
      000000ACH   SFRSYM    DATA     BYTE      S3CON
      0000009AH   SFRSYM    DATA     BYTE      S2CON
      000000B7H   SFRSYM    DATA     BYTE      IPH
      000000CDH   SFRSYM    DATA     BYTE      SPSTAT
      000000DDH   SFRSYM    DATA     BYTE      T4T3M
      000000C1H   SFRSYM    DATA     BYTE      WDT_CONTR
      000000DFH   SFRSYM    DATA     BYTE      IP3
      000000F4H   SFRSYM    DATA     BYTE      USBCON
      000000B5H   SFRSYM    DATA     BYTE      IP2
      000000FFH   SFRSYM    DATA     BYTE      RSTCFG
      000000C7H   SFRSYM    DATA     BYTE      IAP_CONTR
      0000008EH   SFRSYM    DATA     BYTE      AUXR
      000000AFH   SFRSYM    DATA     BYTE      IE2
      00000088H   SFRSYM    DATA     BYTE      TCON
      00000089H   SFRSYM    DATA     BYTE      TMOD
      00000098H   SFRSYM    DATA     BYTE      SCON
      00000087H   SFRSYM    DATA     BYTE      PCON
      000000BCH   SFRSYM    DATA     BYTE      ADC_CONTR
      000000D1H   SFRSYM    DATA     BYTE      PSW1
      000000E7H   SFRSYM    DATA     BYTE      CMPCR2
      000000E6H   SFRSYM    DATA     BYTE      CMPCR1
      000000DEH   SFRSYM    DATA     BYTE      ADCCFG
      000000B8H   SFRSYM    DATA     BYTE      IP
      0000008FH   SFRSYM    DATA     BYTE      INTCLKO
      000000EEH   SFRSYM    DATA     BYTE      IP3H
      000000B6H   SFRSYM    DATA     BYTE      IP2H
      000000BFH   SFRSYM    DATA     BYTE      P_SW4
      000000A8H   SFRSYM    DATA     BYTE      IE
      000000BBH   SFRSYM    DATA     BYTE      P_SW3
      000000BAH   SFRSYM    DATA     BYTE      P_SW2
      000000A2H   SFRSYM    DATA     BYTE      P_SW1
      000000CEH   SFRSYM    DATA     BYTE      SPCTL
      000000F8H   SFRSYM    DATA     BYTE      P7
      000000A8H.7 SFRSYM    DATA     BIT       EA
      000000E8H   SFRSYM    DATA     BYTE      P6
      000000C8H   SFRSYM    DATA     BYTE      P5
      000000C0H   SFRSYM    DATA     BYTE      P4
      000000ABH   SFRSYM    DATA     BYTE      WKTCH
      000000B0H   SFRSYM    DATA     BYTE      P3
      000000A0H   SFRSYM    DATA     BYTE      P2
      00000090H   SFRSYM    DATA     BYTE      P1
      00000080H   SFRSYM    DATA     BYTE      P0
      00012EAEH   SYMBOL    XDATA    INT       irqn
      00012EB0H   SYMBOL    XDATA    BYTE      priority

      00FF0040H   BLOCK     CODE     ---       LVL=0
      00FF0040H   LINE      CODE     ---       #88
      00FF0040H   LINE      CODE     ---       #90
      00FF0042H   LINE      CODE     ---       #91
      ---         BLOCKEND  ---      ---       LVL=0

      ---         MODULE    ---      ---       ?C_START
      00FF0000H   PUBLIC    CODE     ---       ?C?STARTUP
      00FF0000H   PUBLIC    CODE     ---       ?C_STARTUP
      000000D0H.6 SFRSYM    DATA     BIT       AC
      000000E0H   SFRSYM    DATA     BYTE      ACC
      000000F0H   SFRSYM    DATA     BYTE      B
      000000FAH   SFRSYM    DATA     BYTE      CCAP0H
L251 LINKER/LOCATER V4.66.93.0                                                        06/12/2025  20:04:03  PAGE 48


      000000EAH   SFRSYM    DATA     BYTE      CCAP0L
      000000FBH   SFRSYM    DATA     BYTE      CCAP1H
      000000EBH   SFRSYM    DATA     BYTE      CCAP1L
      000000FCH   SFRSYM    DATA     BYTE      CCAP2H
      000000ECH   SFRSYM    DATA     BYTE      CCAP2L
      000000FDH   SFRSYM    DATA     BYTE      CCAP3H
      000000EDH   SFRSYM    DATA     BYTE      CCAP3L
      000000FEH   SFRSYM    DATA     BYTE      CCAP4H
      000000EEH   SFRSYM    DATA     BYTE      CCAP4L
      000000DAH   SFRSYM    DATA     BYTE      CCAPM0
      000000DBH   SFRSYM    DATA     BYTE      CCAPM1
      000000DCH   SFRSYM    DATA     BYTE      CCAPM2
      000000DDH   SFRSYM    DATA     BYTE      CCAPM3
      000000DEH   SFRSYM    DATA     BYTE      CCAPM4
      000000D8H.0 SFRSYM    DATA     BIT       CCF0
      000000D8H.1 SFRSYM    DATA     BIT       CCF1
      000000D8H.2 SFRSYM    DATA     BIT       CCF2
      000000D8H.3 SFRSYM    DATA     BIT       CCF3
      000000D8H.4 SFRSYM    DATA     BIT       CCF4
      000000D8H   SFRSYM    DATA     BYTE      CCON
      00000090H.3 SFRSYM    DATA     BIT       CEX0
      00000090H.4 SFRSYM    DATA     BIT       CEX1
      00000090H.5 SFRSYM    DATA     BIT       CEX2
      00000090H.6 SFRSYM    DATA     BIT       CEX3
      00000090H.7 SFRSYM    DATA     BIT       CEX4
      000000D8H.7 SFRSYM    DATA     BIT       CF
      000000F9H   SFRSYM    DATA     BYTE      CH
      000000E9H   SFRSYM    DATA     BYTE      CL
      000000D9H   SFRSYM    DATA     BYTE      CMOD
      000000C8H.0 SFRSYM    DATA     BIT       CP_RL2
      000000D8H.6 SFRSYM    DATA     BIT       CR
      000000D0H.7 SFRSYM    DATA     BIT       CY
      000000C8H.1 SFRSYM    DATA     BIT       C_T2
      00000083H   SFRSYM    DATA     BYTE      DPH
      00000082H   SFRSYM    DATA     BYTE      DPL
      00000084H   SFRSYM    DATA     BYTE      DPXL
      000000A8H.7 SFRSYM    DATA     BIT       EA
      000000A8H.6 SFRSYM    DATA     BIT       EC
      00000090H.2 SFRSYM    DATA     BIT       ECI
      000000A8H.4 SFRSYM    DATA     BIT       ES
      000000A8H.1 SFRSYM    DATA     BIT       ET0
      000000A8H.3 SFRSYM    DATA     BIT       ET1
      000000A8H.5 SFRSYM    DATA     BIT       ET2
      000000A8H.0 SFRSYM    DATA     BIT       EX0
      000000A8H.2 SFRSYM    DATA     BIT       EX1
      000000C8H.3 SFRSYM    DATA     BIT       EXEN2
      000000C8H.6 SFRSYM    DATA     BIT       EXF2
      000000D0H.5 SFRSYM    DATA     BIT       F0
      00000098H.7 SFRSYM    DATA     BIT       FE
      000000A8H   SFRSYM    DATA     BYTE      IE0
      00000088H.1 SFRSYM    DATA     BIT       IE0_
      000000B1H   SFRSYM    DATA     BYTE      IE1
      00000088H.3 SFRSYM    DATA     BIT       IE1_
      000000B0H.2 SFRSYM    DATA     BIT       INT0
      000000B0H.3 SFRSYM    DATA     BIT       INT1
      000000B7H   SFRSYM    DATA     BYTE      IPH0
      000000B8H   SFRSYM    DATA     BYTE      IPL0
      00000088H.0 SFRSYM    DATA     BIT       IT0
      00000088H.2 SFRSYM    DATA     BIT       IT1
      000000D0H.2 SFRSYM    DATA     BIT       OV
      000000D0H.0 SFRSYM    DATA     BIT       P
      00000080H   SFRSYM    DATA     BYTE      P0
      00000090H   SFRSYM    DATA     BYTE      P1
      000000A0H   SFRSYM    DATA     BYTE      P2
      000000B0H   SFRSYM    DATA     BYTE      P3
L251 LINKER/LOCATER V4.66.93.0                                                        06/12/2025  20:04:03  PAGE 49


      00000087H   SFRSYM    DATA     BYTE      PCON
      000000B8H.6 SFRSYM    DATA     BIT       PPC
      000000B8H.4 SFRSYM    DATA     BIT       PS
      000000D0H   SFRSYM    DATA     BYTE      PSW
      000000D1H   SFRSYM    DATA     BYTE      PSW1
      000000B8H.1 SFRSYM    DATA     BIT       PT0
      000000B8H.3 SFRSYM    DATA     BIT       PT1
      000000B8H.5 SFRSYM    DATA     BIT       PT2
      000000B8H.0 SFRSYM    DATA     BIT       PX0
      000000B8H.2 SFRSYM    DATA     BIT       PX1
      00000098H.2 SFRSYM    DATA     BIT       RB8
      000000CBH   SFRSYM    DATA     BYTE      RCAP2H
      000000CAH   SFRSYM    DATA     BYTE      RCAP2L
      000000C8H.5 SFRSYM    DATA     BIT       RCLK
      000000B0H.7 SFRSYM    DATA     BIT       RD
      00000098H.4 SFRSYM    DATA     BIT       REN
      00000098H.0 SFRSYM    DATA     BIT       RI
      000000D0H.3 SFRSYM    DATA     BIT       RS0
      000000D0H.4 SFRSYM    DATA     BIT       RS1
      000000B0H.0 SFRSYM    DATA     BIT       RXD
      000000A9H   SFRSYM    DATA     BYTE      SADDR
      000000B9H   SFRSYM    DATA     BYTE      SADEN
      00000099H   SFRSYM    DATA     BYTE      SBUF
      00000098H   SFRSYM    DATA     BYTE      SCON
      00000098H.7 SFRSYM    DATA     BIT       SM0
      00000098H.6 SFRSYM    DATA     BIT       SM1
      00000098H.5 SFRSYM    DATA     BIT       SM2
      00000081H   SFRSYM    DATA     BYTE      SP
      000000BEH   SFRSYM    DATA     BYTE      SPH
      000000B0H.4 SFRSYM    DATA     BIT       T0
      000000B0H.5 SFRSYM    DATA     BIT       T1
      00000090H.0 SFRSYM    DATA     BIT       T2
      000000C8H   SFRSYM    DATA     BYTE      T2CON
      00000090H.1 SFRSYM    DATA     BIT       T2EX
      000000C9H   SFRSYM    DATA     BYTE      T2MOD
      00000098H.3 SFRSYM    DATA     BIT       TB8
      000000C8H.4 SFRSYM    DATA     BIT       TCLK
      00000088H   SFRSYM    DATA     BYTE      TCON
      00000088H.5 SFRSYM    DATA     BIT       TF0
      00000088H.7 SFRSYM    DATA     BIT       TF1
      000000C8H.7 SFRSYM    DATA     BIT       TF2
      0000008CH   SFRSYM    DATA     BYTE      TH0
      0000008DH   SFRSYM    DATA     BYTE      TH1
      000000CDH   SFRSYM    DATA     BYTE      TH2
      00000098H.1 SFRSYM    DATA     BIT       TI
      0000008AH   SFRSYM    DATA     BYTE      TL0
      0000008BH   SFRSYM    DATA     BYTE      TL1
      000000CCH   SFRSYM    DATA     BYTE      TL2
      00000089H   SFRSYM    DATA     BYTE      TMOD
      00000088H.4 SFRSYM    DATA     BIT       TR0
      00000088H.6 SFRSYM    DATA     BIT       TR1
      000000C8H.2 SFRSYM    DATA     BIT       TR2
      000000B0H.1 SFRSYM    DATA     BIT       TXD
      000000A6H   SFRSYM    DATA     BYTE      WDTRST
      000000B0H.6 SFRSYM    DATA     BIT       WR
      00000800H   SYMBOL    NUMBER   ---       EDATALEN
      00FFD7BEH   SYMBOL    CODE     ---       EDATALOOP
      00000001H   SYMBOL    NUMBER   ---       EDF
      00000001H   SYMBOL    NUMBER   ---       EMAP
      00000000H   SYMBOL    NUMBER   ---       HDATALEN
      00010000H   SYMBOL    NUMBER   ---       HDATASTART
      00000000H   SYMBOL    NUMBER   ---       IBPSTACK
      00000100H   SYMBOL    NUMBER   ---       IBPSTACKTOP
      00000001H   SYMBOL    NUMBER   ---       INTR
      00000001H   SYMBOL    NUMBER   ---       PAGM
L251 LINKER/LOCATER V4.66.93.0                                                        06/12/2025  20:04:03  PAGE 50


      00000003H   SYMBOL    NUMBER   ---       RDRG
      00000001H   SYMBOL    NUMBER   ---       SRCM
      00000700H   SYMBOL    NUMBER   ---       STACKSIZE
      00FFD7B6H   SYMBOL    CODE     ---       STARTUP1
      00000003H   SYMBOL    NUMBER   ---       WSA
      00000003H   SYMBOL    NUMBER   ---       WSB
      00000001H   SYMBOL    NUMBER   ---       XALE
      00000000H   SYMBOL    NUMBER   ---       XBPSTACK
      00010000H   SYMBOL    NUMBER   ---       XBPSTACKTOP
      00008000H   SYMBOL    NUMBER   ---       XDATALEN
      00FFD7CDH   SYMBOL    CODE     ---       XDATALOOP
      00010000H   SYMBOL    NUMBER   ---       XDATASTART

      00FF0000H   BLOCK     CODE     NEAR LAB  LVL=0
      00FF0000H   LINE      CODE     ---       #183
      ---         BLOCKEND  ---      ---       LVL=0

      00FFD7B6H   BLOCK     CODE     NEAR LAB  LVL=0
      00FFD7B6H   LINE      CODE     ---       #188
      00FFD7B9H   LINE      CODE     ---       #191
      00FFD7BDH   LINE      CODE     ---       #192
      00FFD7BEH   LINE      CODE     ---       #193
      00FFD7C1H   LINE      CODE     ---       #194
      00FFD7C3H   LINE      CODE     ---       #195
      00FFD7C5H   LINE      CODE     ---       #199
      00FFD7C8H   LINE      CODE     ---       #200
      00FFD7CCH   LINE      CODE     ---       #201
      00FFD7CDH   LINE      CODE     ---       #202
      00FFD7CEH   LINE      CODE     ---       #203
      00FFD7CFH   LINE      CODE     ---       #204
      00FFD7D1H   LINE      CODE     ---       #205
      00FFD7D3H   LINE      CODE     ---       #235
      ---         BLOCKEND  ---      ---       LVL=0

      00FFD808H   BLOCK     CODE     NEAR LAB  LVL=0
      00FFD808H   LINE      CODE     ---       #238
      ---         BLOCKEND  ---      ---       LVL=0

      ---         MODULE    ---      ---       zf_driver_adc
      00FFD2EBH   PUBLIC    CODE     ---       adc_convert
      00FFC436H   PUBLIC    CODE     ---       adc_init
      00000094H   SFRSYM    DATA     BYTE      P0M0
      000000D0H   SFRSYM    DATA     BYTE      PSW
      0000009DH   SFRSYM    DATA     BYTE      IRCBAND
      00000097H   SFRSYM    DATA     BYTE      AUXR2
      000000EFH   SFRSYM    DATA     BYTE      AUXINTIF
      000000FDH   SFRSYM    DATA     BYTE      S4CON
      000000ACH   SFRSYM    DATA     BYTE      S3CON
      0000009AH   SFRSYM    DATA     BYTE      S2CON
      000000B7H   SFRSYM    DATA     BYTE      IPH
      000000CDH   SFRSYM    DATA     BYTE      SPSTAT
      000000BEH   SFRSYM    DATA     BYTE      ADC_RESL
      000000DDH   SFRSYM    DATA     BYTE      T4T3M
      000000C1H   SFRSYM    DATA     BYTE      WDT_CONTR
      000000DFH   SFRSYM    DATA     BYTE      IP3
      000000F4H   SFRSYM    DATA     BYTE      USBCON
      000000B5H   SFRSYM    DATA     BYTE      IP2
      000000FFH   SFRSYM    DATA     BYTE      RSTCFG
      000000C7H   SFRSYM    DATA     BYTE      IAP_CONTR
      0000008EH   SFRSYM    DATA     BYTE      AUXR
      000000AFH   SFRSYM    DATA     BYTE      IE2
      00000088H   SFRSYM    DATA     BYTE      TCON
      00000089H   SFRSYM    DATA     BYTE      TMOD
      00000098H   SFRSYM    DATA     BYTE      SCON
      00000087H   SFRSYM    DATA     BYTE      PCON
L251 LINKER/LOCATER V4.66.93.0                                                        06/12/2025  20:04:03  PAGE 51


      000000BCH   SFRSYM    DATA     BYTE      ADC_CONTR
      000000D1H   SFRSYM    DATA     BYTE      PSW1
      000000E7H   SFRSYM    DATA     BYTE      CMPCR2
      000000E6H   SFRSYM    DATA     BYTE      CMPCR1
      000000DEH   SFRSYM    DATA     BYTE      ADCCFG
      000000B8H   SFRSYM    DATA     BYTE      IP
      0000008FH   SFRSYM    DATA     BYTE      INTCLKO
      000000EEH   SFRSYM    DATA     BYTE      IP3H
      000000B6H   SFRSYM    DATA     BYTE      IP2H
      000000BDH   SFRSYM    DATA     BYTE      ADC_RES
      000000BFH   SFRSYM    DATA     BYTE      P_SW4
      000000A8H   SFRSYM    DATA     BYTE      IE
      000000BBH   SFRSYM    DATA     BYTE      P_SW3
      000000BAH   SFRSYM    DATA     BYTE      P_SW2
      000000A2H   SFRSYM    DATA     BYTE      P_SW1
      000000CEH   SFRSYM    DATA     BYTE      SPCTL
      000000F8H   SFRSYM    DATA     BYTE      P7
      000000E8H   SFRSYM    DATA     BYTE      P6
      000000C8H   SFRSYM    DATA     BYTE      P5
      000000C0H   SFRSYM    DATA     BYTE      P4
      000000ABH   SFRSYM    DATA     BYTE      WKTCH
      000000B0H   SFRSYM    DATA     BYTE      P3
      000000A0H   SFRSYM    DATA     BYTE      P2
      00000090H   SFRSYM    DATA     BYTE      P1
      00000080H   SFRSYM    DATA     BYTE      P0
      00000091H   SFRSYM    DATA     BYTE      P1M1
      00000092H   SFRSYM    DATA     BYTE      P1M0
      00000093H   SFRSYM    DATA     BYTE      P0M1
      00012EEDH   SYMBOL    XDATA    BYTE      adc_resolution
      00012D32H   SYMBOL    XDATA    INT       ch
      00012D34H   SYMBOL    XDATA    BYTE      count
      00012D35H   SYMBOL    XDATA    BYTE      i
      00012D36H   SYMBOL    XDATA    DWORD     sum

      00FFD2EBH   BLOCK     CODE     ---       LVL=0
      00012E4EH   SYMBOL    XDATA    INT       ch
      00FFD2F1H   BLOCK     CODE     NEAR LAB  LVL=1
      00012E50H   SYMBOL    XDATA    WORD      adc_value
      ---         BLOCKEND  ---      ---       LVL=1
      00FFD2EBH   LINE      CODE     ---       #75
      00FFD2F1H   LINE      CODE     ---       #76
      00FFD2F1H   LINE      CODE     ---       #79
      00FFD2F4H   LINE      CODE     ---       #80
      00FFD2FEH   LINE      CODE     ---       #82
      00FFD301H   LINE      CODE     ---       #84
      00FFD306H   LINE      CODE     ---       #86
      00FFD309H   LINE      CODE     ---       #88
      00FFD313H   LINE      CODE     ---       #89
      00FFD320H   LINE      CODE     ---       #90
      00FFD32FH   LINE      CODE     ---       #92
      00FFD332H   LINE      CODE     ---       #93
      00FFD335H   LINE      CODE     ---       #95
      00FFD349H   LINE      CODE     ---       #98
      00FFD34FH   LINE      CODE     ---       #99
      ---         BLOCKEND  ---      ---       LVL=0

      00FFC436H   BLOCK     CODE     ---       LVL=0
      00012E52H   SYMBOL    XDATA    INT       ch
      00012E54H   SYMBOL    XDATA    INT       resolution
      00FFC436H   LINE      CODE     ---       #108
      00FFC442H   LINE      CODE     ---       #110
      00FFC445H   LINE      CODE     ---       #112
      00FFC448H   LINE      CODE     ---       #113
      00FFC452H   LINE      CODE     ---       #115
      00FFC464H   LINE      CODE     ---       #118
L251 LINKER/LOCATER V4.66.93.0                                                        06/12/2025  20:04:03  PAGE 52


      00FFC47DH   LINE      CODE     ---       #119
      00FFC494H   LINE      CODE     ---       #120
      00FFC496H   LINE      CODE     ---       #121
      00FFC4A4H   LINE      CODE     ---       #124
      00FFC4BDH   LINE      CODE     ---       #125
      00FFC4D4H   LINE      CODE     ---       #126
      00FFC4D4H   LINE      CODE     ---       #128
      00FFC4D7H   LINE      CODE     ---       #130
      00FFC4DAH   LINE      CODE     ---       #132
      00FFC4E4H   LINE      CODE     ---       #133
      ---         BLOCKEND  ---      ---       LVL=0

      ---         MODULE    ---      ---       zf_driver_delay
      00FFD538H   PUBLIC    CODE     ---       system_delay_init
      00FFCD1AH   PUBLIC    CODE     ---       system_delay_ms
      000000D0H   SFRSYM    DATA     BYTE      PSW
      0000009DH   SFRSYM    DATA     BYTE      IRCBAND
      00000097H   SFRSYM    DATA     BYTE      AUXR2
      000000EFH   SFRSYM    DATA     BYTE      AUXINTIF
      000000FDH   SFRSYM    DATA     BYTE      S4CON
      000000ACH   SFRSYM    DATA     BYTE      S3CON
      0000009AH   SFRSYM    DATA     BYTE      S2CON
      000000B7H   SFRSYM    DATA     BYTE      IPH
      000000CDH   SFRSYM    DATA     BYTE      SPSTAT
      000000DDH   SFRSYM    DATA     BYTE      T4T3M
      000000C1H   SFRSYM    DATA     BYTE      WDT_CONTR
      000000DFH   SFRSYM    DATA     BYTE      IP3
      000000F4H   SFRSYM    DATA     BYTE      USBCON
      000000B5H   SFRSYM    DATA     BYTE      IP2
      000000FFH   SFRSYM    DATA     BYTE      RSTCFG
      000000C7H   SFRSYM    DATA     BYTE      IAP_CONTR
      0000008EH   SFRSYM    DATA     BYTE      AUXR
      000000AFH   SFRSYM    DATA     BYTE      IE2
      00000088H   SFRSYM    DATA     BYTE      TCON
      00000089H   SFRSYM    DATA     BYTE      TMOD
      00000098H   SFRSYM    DATA     BYTE      SCON
      00000087H   SFRSYM    DATA     BYTE      PCON
      000000BCH   SFRSYM    DATA     BYTE      ADC_CONTR
      000000D1H   SFRSYM    DATA     BYTE      PSW1
      000000E7H   SFRSYM    DATA     BYTE      CMPCR2
      000000E6H   SFRSYM    DATA     BYTE      CMPCR1
      000000DEH   SFRSYM    DATA     BYTE      ADCCFG
      000000B8H   SFRSYM    DATA     BYTE      IP
      0000008FH   SFRSYM    DATA     BYTE      INTCLKO
      000000EEH   SFRSYM    DATA     BYTE      IP3H
      000000B6H   SFRSYM    DATA     BYTE      IP2H
      000000BFH   SFRSYM    DATA     BYTE      P_SW4
      000000A8H   SFRSYM    DATA     BYTE      IE
      000000BBH   SFRSYM    DATA     BYTE      P_SW3
      000000BAH   SFRSYM    DATA     BYTE      P_SW2
      000000A2H   SFRSYM    DATA     BYTE      P_SW1
      000000CEH   SFRSYM    DATA     BYTE      SPCTL
      000000F8H   SFRSYM    DATA     BYTE      P7
      000000E8H   SFRSYM    DATA     BYTE      P6
      000000C8H   SFRSYM    DATA     BYTE      P5
      000000C0H   SFRSYM    DATA     BYTE      P4
      000000ABH   SFRSYM    DATA     BYTE      WKTCH
      000000B0H   SFRSYM    DATA     BYTE      P3
      000000A0H   SFRSYM    DATA     BYTE      P2
      00000090H   SFRSYM    DATA     BYTE      P1
      00000080H   SFRSYM    DATA     BYTE      P0
      00012E56H   SYMBOL    XDATA    WORD      pca_delay_1ms
      00012E58H   SYMBOL    XDATA    WORD      pca_delay_1us

      00FFD538H   BLOCK     CODE     ---       LVL=0
L251 LINKER/LOCATER V4.66.93.0                                                        06/12/2025  20:04:03  PAGE 53


      00FFD538H   LINE      CODE     ---       #48
      00FFD538H   LINE      CODE     ---       #50
      00FFD54FH   LINE      CODE     ---       #51
      00FFD56AH   LINE      CODE     ---       #53
      00FFD577H   LINE      CODE     ---       #54
      00FFD584H   LINE      CODE     ---       #55
      00FFD594H   LINE      CODE     ---       #57
      ---         BLOCKEND  ---      ---       LVL=0

      00FFCD1AH   BLOCK     CODE     ---       LVL=0
      00012E5AH   SYMBOL    XDATA    WORD      ms
      00FFCD20H   BLOCK     CODE     NEAR LAB  LVL=1
      00012E5CH   SYMBOL    XDATA    WORD      temp
      ---         BLOCKEND  ---      ---       LVL=1
      00FFCD1AH   LINE      CODE     ---       #65
      00FFCD20H   LINE      CODE     ---       #66
      00FFCD20H   LINE      CODE     ---       #69
      00FFCD22H   LINE      CODE     ---       #71
      00FFCD4CH   LINE      CODE     ---       #73
      00FFCD5DH   LINE      CODE     ---       #74
      00FFCD72H   LINE      CODE     ---       #76
      00FFCD80H   LINE      CODE     ---       #77
      00FFCD90H   LINE      CODE     ---       #78
      00FFCDA1H   LINE      CODE     ---       #79
      ---         BLOCKEND  ---      ---       LVL=0
      00012E5EH   SYMBOL    XDATA    WORD      ms
      00012E60H   SYMBOL    XDATA    WORD      temp

      ---         MODULE    ---      ---       zf_driver_eeprom
      00FFE1C7H   PUBLIC    CODE     ---       iap_set_tps
      00FF000EH   PUBLIC    CODE     ---       eeprom_trig
      00FF01CEH   PUBLIC    CODE     ---       iap_erase_page
      00FFD011H   PUBLIC    CODE     ---       iap_read_buff
      00FFD1B8H   PUBLIC    CODE     ---       iap_write_buff
      00FFD95BH   PUBLIC    CODE     ---       iap_read_byte
      00FF01AEH   PUBLIC    CODE     ---       iap_init
      00FFD9AAH   PUBLIC    CODE     ---       iap_write_byte
      00012C55H   PUBLIC    XDATA    BYTE      ?iap_read_buff?BYTE
      00012C5FH   PUBLIC    XDATA    BYTE      ?iap_write_buff?BYTE
      000000D0H   SFRSYM    DATA     BYTE      PSW
      0000009DH   SFRSYM    DATA     BYTE      IRCBAND
      00000097H   SFRSYM    DATA     BYTE      AUXR2
      000000C6H   SFRSYM    DATA     BYTE      IAP_TRIG
      000000EFH   SFRSYM    DATA     BYTE      AUXINTIF
      000000FDH   SFRSYM    DATA     BYTE      S4CON
      000000ACH   SFRSYM    DATA     BYTE      S3CON
      0000009AH   SFRSYM    DATA     BYTE      S2CON
      000000B7H   SFRSYM    DATA     BYTE      IPH
      000000CDH   SFRSYM    DATA     BYTE      SPSTAT
      000000DDH   SFRSYM    DATA     BYTE      T4T3M
      000000C1H   SFRSYM    DATA     BYTE      WDT_CONTR
      000000C2H   SFRSYM    DATA     BYTE      IAP_DATA
      000000DFH   SFRSYM    DATA     BYTE      IP3
      000000F4H   SFRSYM    DATA     BYTE      USBCON
      000000B5H   SFRSYM    DATA     BYTE      IP2
      000000FFH   SFRSYM    DATA     BYTE      RSTCFG
      000000C7H   SFRSYM    DATA     BYTE      IAP_CONTR
      0000008EH   SFRSYM    DATA     BYTE      AUXR
      000000AFH   SFRSYM    DATA     BYTE      IE2
      00000088H   SFRSYM    DATA     BYTE      TCON
      00000089H   SFRSYM    DATA     BYTE      TMOD
      00000098H   SFRSYM    DATA     BYTE      SCON
      000000F5H   SFRSYM    DATA     BYTE      IAP_TPS
      00000087H   SFRSYM    DATA     BYTE      PCON
      000000BCH   SFRSYM    DATA     BYTE      ADC_CONTR
L251 LINKER/LOCATER V4.66.93.0                                                        06/12/2025  20:04:03  PAGE 54


      000000D1H   SFRSYM    DATA     BYTE      PSW1
      000000E7H   SFRSYM    DATA     BYTE      CMPCR2
      000000E6H   SFRSYM    DATA     BYTE      CMPCR1
      000000C4H   SFRSYM    DATA     BYTE      IAP_ADDRL
      000000C3H   SFRSYM    DATA     BYTE      IAP_ADDRH
      000000F6H   SFRSYM    DATA     BYTE      IAP_ADDRE
      000000DEH   SFRSYM    DATA     BYTE      ADCCFG
      000000B8H   SFRSYM    DATA     BYTE      IP
      0000008FH   SFRSYM    DATA     BYTE      INTCLKO
      000000EEH   SFRSYM    DATA     BYTE      IP3H
      000000B6H   SFRSYM    DATA     BYTE      IP2H
      000000C5H   SFRSYM    DATA     BYTE      IAP_CMD
      000000BFH   SFRSYM    DATA     BYTE      P_SW4
      000000A8H   SFRSYM    DATA     BYTE      IE
      000000BBH   SFRSYM    DATA     BYTE      P_SW3
      000000BAH   SFRSYM    DATA     BYTE      P_SW2
      000000A2H   SFRSYM    DATA     BYTE      P_SW1
      000000CEH   SFRSYM    DATA     BYTE      SPCTL
      000000F8H   SFRSYM    DATA     BYTE      P7
      000000A8H.7 SFRSYM    DATA     BIT       EA
      000000E8H   SFRSYM    DATA     BYTE      P6
      000000C8H   SFRSYM    DATA     BYTE      P5
      000000C0H   SFRSYM    DATA     BYTE      P4
      000000ABH   SFRSYM    DATA     BYTE      WKTCH
      000000B0H   SFRSYM    DATA     BYTE      P3
      000000A0H   SFRSYM    DATA     BYTE      P2
      00000090H   SFRSYM    DATA     BYTE      P1
      00000080H   SFRSYM    DATA     BYTE      P0
      00FFF138H   SYMBOL    HCONST   ---       ?tpl?0001

      00FF000EH   BLOCK     CODE     ---       LVL=0
      00FF000EH   LINE      CODE     ---       #46
      00FF000EH   LINE      CODE     ---       #49
      00FF0011H   LINE      CODE     ---       #50
      00FF0014H   LINE      CODE     ---       #53
      00FF0015H   LINE      CODE     ---       #54
      00FF0016H   LINE      CODE     ---       #55
      00FF0017H   LINE      CODE     ---       #56
      00FF0018H   LINE      CODE     ---       #58
      ---         BLOCKEND  ---      ---       LVL=0

      00FF01AEH   BLOCK     CODE     ---       LVL=0
      00FF01AEH   LINE      CODE     ---       #67
      00FF01AEH   LINE      CODE     ---       #69
      00FF01B1H   LINE      CODE     ---       #70
      00FF01B4H   LINE      CODE     ---       #71
      ---         BLOCKEND  ---      ---       LVL=0

      00FFE1C7H   BLOCK     CODE     ---       LVL=0
      00012EEEH   SYMBOL    XDATA    BYTE      write_time
      00FFE1C7H   LINE      CODE     ---       #104
      00FFE1C7H   LINE      CODE     ---       #105
      00FFE1C7H   LINE      CODE     ---       #107
      00FFE1E2H   LINE      CODE     ---       #108
      00FFE1ECH   LINE      CODE     ---       #109
      ---         BLOCKEND  ---      ---       LVL=0

      00FFD95BH   BLOCK     CODE     ---       LVL=0
      00012E16H   SYMBOL    XDATA    DWORD     addr
      00FFD965H   BLOCK     CODE     NEAR LAB  LVL=1
      00012E1AH   SYMBOL    XDATA    BYTE      temp
      00000020H.0 SYMBOL    BIT      BIT       flag
      ---         BLOCKEND  ---      ---       LVL=1
      00FFD95BH   LINE      CODE     ---       #119
      00FFD965H   LINE      CODE     ---       #120
L251 LINKER/LOCATER V4.66.93.0                                                        06/12/2025  20:04:03  PAGE 55


      00FFD965H   LINE      CODE     ---       #122
      00FFD967H   LINE      CODE     ---       #123
      00FFD96BH   LINE      CODE     ---       #124
      00FFD96DH   LINE      CODE     ---       #126
      00FFD970H   LINE      CODE     ---       #128
      00FFD97CH   LINE      CODE     ---       #129
      00FFD98AH   LINE      CODE     ---       #130
      00FFD998H   LINE      CODE     ---       #131
      00FFD99BH   LINE      CODE     ---       #132
      00FFD9A1H   LINE      CODE     ---       #134
      00FFD9A5H   LINE      CODE     ---       #135
      00FFD9A9H   LINE      CODE     ---       #136
      ---         BLOCKEND  ---      ---       LVL=0

      00FFD9AAH   BLOCK     CODE     ---       LVL=0
      00012E1BH   SYMBOL    XDATA    DWORD     addr
      00012E1FH   SYMBOL    XDATA    BYTE      byte
      00FFD9B8H   BLOCK     CODE     NEAR LAB  LVL=1
      00000020H.1 SYMBOL    BIT      BIT       flag
      ---         BLOCKEND  ---      ---       LVL=1
      00FFD9AAH   LINE      CODE     ---       #146
      00FFD9B8H   LINE      CODE     ---       #147
      00FFD9B8H   LINE      CODE     ---       #148
      00FFD9BAH   LINE      CODE     ---       #150
      00FFD9BEH   LINE      CODE     ---       #151
      00FFD9C0H   LINE      CODE     ---       #153
      00FFD9C3H   LINE      CODE     ---       #155
      00FFD9CFH   LINE      CODE     ---       #156
      00FFD9DDH   LINE      CODE     ---       #157
      00FFD9EBH   LINE      CODE     ---       #158
      00FFD9F1H   LINE      CODE     ---       #160
      00FFD9F4H   LINE      CODE     ---       #162
      00FFD9F8H   LINE      CODE     ---       #163
      ---         BLOCKEND  ---      ---       LVL=0

      00FFD011H   BLOCK     CODE     ---       LVL=0
      00012C55H   SYMBOL    XDATA    DWORD     addr
      00012C59H   SYMBOL    XDATA    ---       buf
      00012C5DH   SYMBOL    XDATA    WORD      len
      00FFD011H   LINE      CODE     ---       #175
      00FFD025H   LINE      CODE     ---       #177
      00FFD027H   LINE      CODE     ---       #179
      00FFD057H   LINE      CODE     ---       #180
      00FFD06AH   LINE      CODE     ---       #181
      00FFD07BH   LINE      CODE     ---       #182
      ---         BLOCKEND  ---      ---       LVL=0

      00FFD1B8H   BLOCK     CODE     ---       LVL=0
      00012C5FH   SYMBOL    XDATA    DWORD     addr
      00012C63H   SYMBOL    XDATA    ---       buf
      00012C67H   SYMBOL    XDATA    WORD      len
      00FFD1B8H   LINE      CODE     ---       #194
      00FFD1CCH   LINE      CODE     ---       #196
      00FFD1CEH   LINE      CODE     ---       #198
      00FFD1E8H   LINE      CODE     ---       #199
      00FFD1FBH   LINE      CODE     ---       #200
      00FFD20EH   LINE      CODE     ---       #201
      00FFD21FH   LINE      CODE     ---       #202
      ---         BLOCKEND  ---      ---       LVL=0

      00FF01CEH   BLOCK     CODE     ---       LVL=0
      00012E62H   SYMBOL    XDATA    DWORD     addr
      00FF01D8H   BLOCK     CODE     NEAR LAB  LVL=1
      00000020H.2 SYMBOL    BIT      BIT       flag
      ---         BLOCKEND  ---      ---       LVL=1
L251 LINKER/LOCATER V4.66.93.0                                                        06/12/2025  20:04:03  PAGE 56


      00FF01CEH   LINE      CODE     ---       #213
      00FF01D8H   LINE      CODE     ---       #214
      00FF01D8H   LINE      CODE     ---       #215
      00FF01DAH   LINE      CODE     ---       #217
      00FF01DEH   LINE      CODE     ---       #218
      00FF01E0H   LINE      CODE     ---       #219
      00FF01E3H   LINE      CODE     ---       #220
      00FF01EFH   LINE      CODE     ---       #221
      00FF01FDH   LINE      CODE     ---       #222
      00FF020BH   LINE      CODE     ---       #223
      00FF020EH   LINE      CODE     ---       #225
      00FF0212H   LINE      CODE     ---       #226
      00FF0219H   LINE      CODE     ---       #227
      ---         BLOCKEND  ---      ---       LVL=0
      00011E08H   SYMBOL    XDATA    WORD      addr
      00011E0AH   SYMBOL    XDATA    ---       buf
      00011E0EH   SYMBOL    XDATA    WORD      len
      00011E10H   SYMBOL    XDATA    ---       temp
      00012010H   SYMBOL    XDATA    WORD      i

      ---         MODULE    ---      ---       zf_driver_encoder
      00FFB27EH   PUBLIC    CODE     ---       encoder_get_count
      00FF00C6H   PUBLIC    CODE     ---       encoder_dir_init
      00FFC62EH   PUBLIC    CODE     ---       encoder_clear_count
      000000D0H   SFRSYM    DATA     BYTE      PSW
      0000009DH   SFRSYM    DATA     BYTE      IRCBAND
      00000097H   SFRSYM    DATA     BYTE      AUXR2
      000000EFH   SFRSYM    DATA     BYTE      AUXINTIF
      000000FDH   SFRSYM    DATA     BYTE      S4CON
      000000ACH   SFRSYM    DATA     BYTE      S3CON
      0000009AH   SFRSYM    DATA     BYTE      S2CON
      000000B7H   SFRSYM    DATA     BYTE      IPH
      000000CDH   SFRSYM    DATA     BYTE      SPSTAT
      000000DDH   SFRSYM    DATA     BYTE      T4T3M
      000000C1H   SFRSYM    DATA     BYTE      WDT_CONTR
      00000088H.6 SFRSYM    DATA     BIT       TR1
      00000088H.4 SFRSYM    DATA     BIT       TR0
      000000D3H   SFRSYM    DATA     BYTE      T4L
      000000D5H   SFRSYM    DATA     BYTE      T3L
      000000D7H   SFRSYM    DATA     BYTE      T2L
      0000008BH   SFRSYM    DATA     BYTE      TL1
      0000008AH   SFRSYM    DATA     BYTE      TL0
      000000D2H   SFRSYM    DATA     BYTE      T4H
      000000D4H   SFRSYM    DATA     BYTE      T3H
      000000D6H   SFRSYM    DATA     BYTE      T2H
      0000008DH   SFRSYM    DATA     BYTE      TH1
      0000008CH   SFRSYM    DATA     BYTE      TH0
      000000DFH   SFRSYM    DATA     BYTE      IP3
      000000F4H   SFRSYM    DATA     BYTE      USBCON
      000000B5H   SFRSYM    DATA     BYTE      IP2
      000000FFH   SFRSYM    DATA     BYTE      RSTCFG
      000000C7H   SFRSYM    DATA     BYTE      IAP_CONTR
      0000008EH   SFRSYM    DATA     BYTE      AUXR
      000000AFH   SFRSYM    DATA     BYTE      IE2
      00000088H   SFRSYM    DATA     BYTE      TCON
      00000089H   SFRSYM    DATA     BYTE      TMOD
      00000098H   SFRSYM    DATA     BYTE      SCON
      00000087H   SFRSYM    DATA     BYTE      PCON
      000000BCH   SFRSYM    DATA     BYTE      ADC_CONTR
      000000D1H   SFRSYM    DATA     BYTE      PSW1
      000000E7H   SFRSYM    DATA     BYTE      CMPCR2
      000000E6H   SFRSYM    DATA     BYTE      CMPCR1
      000000DEH   SFRSYM    DATA     BYTE      ADCCFG
      000000B8H   SFRSYM    DATA     BYTE      IP
      0000008FH   SFRSYM    DATA     BYTE      INTCLKO
L251 LINKER/LOCATER V4.66.93.0                                                        06/12/2025  20:04:03  PAGE 57


      000000EEH   SFRSYM    DATA     BYTE      IP3H
      000000B6H   SFRSYM    DATA     BYTE      IP2H
      000000BFH   SFRSYM    DATA     BYTE      P_SW4
      000000A8H   SFRSYM    DATA     BYTE      IE
      000000BBH   SFRSYM    DATA     BYTE      P_SW3
      000000BAH   SFRSYM    DATA     BYTE      P_SW2
      000000A2H   SFRSYM    DATA     BYTE      P_SW1
      000000CEH   SFRSYM    DATA     BYTE      SPCTL
      000000F8H   SFRSYM    DATA     BYTE      P7
      000000E8H   SFRSYM    DATA     BYTE      P6
      000000C8H   SFRSYM    DATA     BYTE      P5
      000000C0H   SFRSYM    DATA     BYTE      P4
      000000ABH   SFRSYM    DATA     BYTE      WKTCH
      000000B0H   SFRSYM    DATA     BYTE      P3
      000000A0H   SFRSYM    DATA     BYTE      P2
      00000090H   SFRSYM    DATA     BYTE      P1
      00000080H   SFRSYM    DATA     BYTE      P0
      00012DBCH   SYMBOL    XDATA    ---       encoder_dir_pin

      00FFB27EH   BLOCK     CODE     ---       LVL=0
      00012E66H   SYMBOL    XDATA    INT       encoder_n
      00FFB284H   BLOCK     CODE     NEAR LAB  LVL=1
      00012E68H   SYMBOL    XDATA    INT       dat
      ---         BLOCKEND  ---      ---       LVL=1
      00FFB27EH   LINE      CODE     ---       #48
      00FFB284H   LINE      CODE     ---       #49
      00FFB284H   LINE      CODE     ---       #50
      00FFB28CH   LINE      CODE     ---       #52
      00FFB2B5H   LINE      CODE     ---       #54
      00FFB2B5H   LINE      CODE     ---       #56
      00FFB2C1H   LINE      CODE     ---       #57
      00FFB2D3H   LINE      CODE     ---       #58
      00FFB2D6H   LINE      CODE     ---       #61
      00FFB2D6H   LINE      CODE     ---       #63
      00FFB2E2H   LINE      CODE     ---       #64
      00FFB2F4H   LINE      CODE     ---       #65
      00FFB2F7H   LINE      CODE     ---       #68
      00FFB2F7H   LINE      CODE     ---       #70
      00FFB303H   LINE      CODE     ---       #71
      00FFB315H   LINE      CODE     ---       #72
      00FFB317H   LINE      CODE     ---       #75
      00FFB317H   LINE      CODE     ---       #77
      00FFB323H   LINE      CODE     ---       #78
      00FFB335H   LINE      CODE     ---       #79
      00FFB337H   LINE      CODE     ---       #82
      00FFB337H   LINE      CODE     ---       #84
      00FFB343H   LINE      CODE     ---       #85
      00FFB355H   LINE      CODE     ---       #86
      00FFB357H   LINE      CODE     ---       #89
      00FFB357H   LINE      CODE     ---       #91
      00FFB36AH   LINE      CODE     ---       #92
      00FFB385H   LINE      CODE     ---       #93
      00FFB385H   LINE      CODE     ---       #96
      00FFB385H   LINE      CODE     ---       #98
      00FFB39DH   LINE      CODE     ---       #100
      00FFB3ABH   LINE      CODE     ---       #101
      00FFB3ABH   LINE      CODE     ---       #103
      00FFB3B1H   LINE      CODE     ---       #104
      ---         BLOCKEND  ---      ---       LVL=0

      00FFC62EH   BLOCK     CODE     ---       LVL=0
      00012ED2H   SYMBOL    XDATA    INT       encoder_n
      00FFC62EH   LINE      CODE     ---       #113
      00FFC634H   LINE      CODE     ---       #115
      00FFC654H   LINE      CODE     ---       #117
L251 LINKER/LOCATER V4.66.93.0                                                        06/12/2025  20:04:03  PAGE 58


      00FFC654H   LINE      CODE     ---       #119
      00FFC656H   LINE      CODE     ---       #120
      00FFC659H   LINE      CODE     ---       #121
      00FFC65CH   LINE      CODE     ---       #122
      00FFC65EH   LINE      CODE     ---       #123
      00FFC660H   LINE      CODE     ---       #126
      00FFC660H   LINE      CODE     ---       #128
      00FFC662H   LINE      CODE     ---       #129
      00FFC665H   LINE      CODE     ---       #130
      00FFC668H   LINE      CODE     ---       #131
      00FFC66AH   LINE      CODE     ---       #132
      00FFC66CH   LINE      CODE     ---       #135
      00FFC66CH   LINE      CODE     ---       #137
      00FFC66FH   LINE      CODE     ---       #138
      00FFC672H   LINE      CODE     ---       #139
      00FFC675H   LINE      CODE     ---       #140
      00FFC678H   LINE      CODE     ---       #141
      00FFC67AH   LINE      CODE     ---       #144
      00FFC67AH   LINE      CODE     ---       #146
      00FFC67DH   LINE      CODE     ---       #147
      00FFC680H   LINE      CODE     ---       #148
      00FFC683H   LINE      CODE     ---       #149
      00FFC686H   LINE      CODE     ---       #150
      00FFC688H   LINE      CODE     ---       #153
      00FFC688H   LINE      CODE     ---       #155
      00FFC68BH   LINE      CODE     ---       #156
      00FFC68EH   LINE      CODE     ---       #157
      00FFC691H   LINE      CODE     ---       #158
      00FFC694H   LINE      CODE     ---       #159
      00FFC696H   LINE      CODE     ---       #162
      00FFC696H   LINE      CODE     ---       #164
      00FFC6A6H   LINE      CODE     ---       #165
      00FFC6B2H   LINE      CODE     ---       #166
      00FFC6BEH   LINE      CODE     ---       #167
      00FFC6CEH   LINE      CODE     ---       #168
      00FFC6CEH   LINE      CODE     ---       #170
      00FFC6CEH   LINE      CODE     ---       #171
      ---         BLOCKEND  ---      ---       LVL=0

      00FF00C6H   BLOCK     CODE     ---       LVL=0
      00012DC2H   SYMBOL    XDATA    INT       encoder_n
      00012DC4H   SYMBOL    XDATA    INT       dir_pin
      00012DC6H   SYMBOL    XDATA    INT       lsb_pin
      00FF00C6H   LINE      CODE     ---       #183
      00FF00D8H   LINE      CODE     ---       #194
      00FF00E8H   LINE      CODE     ---       #196
      00FF00FBH   LINE      CODE     ---       #198
      00FF0112H   LINE      CODE     ---       #200
      00FF0132H   LINE      CODE     ---       #202
      00FF0132H   LINE      CODE     ---       #204
      00FF0135H   LINE      CODE     ---       #205
      00FF0138H   LINE      CODE     ---       #206
      00FF013BH   LINE      CODE     ---       #207
      00FF013DH   LINE      CODE     ---       #208
      00FF013FH   LINE      CODE     ---       #211
      00FF013FH   LINE      CODE     ---       #213
      00FF0142H   LINE      CODE     ---       #214
      00FF0145H   LINE      CODE     ---       #215
      00FF0148H   LINE      CODE     ---       #216
      00FF014AH   LINE      CODE     ---       #217
      00FF014CH   LINE      CODE     ---       #220
      00FF014CH   LINE      CODE     ---       #222
      00FF014FH   LINE      CODE     ---       #223
      00FF0152H   LINE      CODE     ---       #224
      00FF0155H   LINE      CODE     ---       #225
L251 LINKER/LOCATER V4.66.93.0                                                        06/12/2025  20:04:03  PAGE 59


      00FF0157H   LINE      CODE     ---       #228
      00FF0157H   LINE      CODE     ---       #230
      00FF015AH   LINE      CODE     ---       #231
      00FF015DH   LINE      CODE     ---       #232
      00FF0160H   LINE      CODE     ---       #233
      00FF0162H   LINE      CODE     ---       #236
      00FF0162H   LINE      CODE     ---       #238
      00FF0165H   LINE      CODE     ---       #239
      00FF0168H   LINE      CODE     ---       #240
      00FF016BH   LINE      CODE     ---       #241
      00FF016DH   LINE      CODE     ---       #244
      00FF016DH   LINE      CODE     ---       #246
      00FF0179H   LINE      CODE     ---       #247
      00FF0185H   LINE      CODE     ---       #248
      00FF0195H   LINE      CODE     ---       #249
      00FF0195H   LINE      CODE     ---       #251
      00FF0195H   LINE      CODE     ---       #252
      ---         BLOCKEND  ---      ---       LVL=0

      ---         MODULE    ---      ---       zf_driver_exti
      000000D0H   SFRSYM    DATA     BYTE      PSW
      0000009DH   SFRSYM    DATA     BYTE      IRCBAND
      00000097H   SFRSYM    DATA     BYTE      AUXR2
      000000EFH   SFRSYM    DATA     BYTE      AUXINTIF
      000000FDH   SFRSYM    DATA     BYTE      S4CON
      000000ACH   SFRSYM    DATA     BYTE      S3CON
      0000009AH   SFRSYM    DATA     BYTE      S2CON
      000000B7H   SFRSYM    DATA     BYTE      IPH
      000000CDH   SFRSYM    DATA     BYTE      SPSTAT
      000000DDH   SFRSYM    DATA     BYTE      T4T3M
      000000C1H   SFRSYM    DATA     BYTE      WDT_CONTR
      000000DFH   SFRSYM    DATA     BYTE      IP3
      000000F4H   SFRSYM    DATA     BYTE      USBCON
      000000B5H   SFRSYM    DATA     BYTE      IP2
      000000FFH   SFRSYM    DATA     BYTE      RSTCFG
      000000C7H   SFRSYM    DATA     BYTE      IAP_CONTR
      0000008EH   SFRSYM    DATA     BYTE      AUXR
      000000AFH   SFRSYM    DATA     BYTE      IE2
      00000088H   SFRSYM    DATA     BYTE      TCON
      00000089H   SFRSYM    DATA     BYTE      TMOD
      00000098H   SFRSYM    DATA     BYTE      SCON
      00000087H   SFRSYM    DATA     BYTE      PCON
      000000BCH   SFRSYM    DATA     BYTE      ADC_CONTR
      000000D1H   SFRSYM    DATA     BYTE      PSW1
      000000E7H   SFRSYM    DATA     BYTE      CMPCR2
      000000E6H   SFRSYM    DATA     BYTE      CMPCR1
      000000DEH   SFRSYM    DATA     BYTE      ADCCFG
      000000B8H   SFRSYM    DATA     BYTE      IP
      0000008FH   SFRSYM    DATA     BYTE      INTCLKO
      000000EEH   SFRSYM    DATA     BYTE      IP3H
      000000B6H   SFRSYM    DATA     BYTE      IP2H
      000000BFH   SFRSYM    DATA     BYTE      P_SW4
      000000A8H   SFRSYM    DATA     BYTE      IE
      000000BBH   SFRSYM    DATA     BYTE      P_SW3
      000000BAH   SFRSYM    DATA     BYTE      P_SW2
      000000A2H   SFRSYM    DATA     BYTE      P_SW1
      000000CEH   SFRSYM    DATA     BYTE      SPCTL
      000000F8H   SFRSYM    DATA     BYTE      P7
      000000E8H   SFRSYM    DATA     BYTE      P6
      000000C8H   SFRSYM    DATA     BYTE      P5
      000000C0H   SFRSYM    DATA     BYTE      P4
      000000ABH   SFRSYM    DATA     BYTE      WKTCH
      000000B0H   SFRSYM    DATA     BYTE      P3
      000000A0H   SFRSYM    DATA     BYTE      P2
      00000090H   SFRSYM    DATA     BYTE      P1
L251 LINKER/LOCATER V4.66.93.0                                                        06/12/2025  20:04:03  PAGE 60


      00000080H   SFRSYM    DATA     BYTE      P0

      ---         MODULE    ---      ---       zf_driver_gpio
      00FFBE60H   PUBLIC    CODE     ---       gpio_init
      00FFB6FFH   PUBLIC    CODE     ---       gpio_get_level
      00FF75DEH   PUBLIC    CODE     ---       gpio_set_level_speed
      00FFA377H   PUBLIC    CODE     ---       gpio_set_level
      00FFAE78H   PUBLIC    CODE     ---       gpio_set_impedance
      00000094H   SFRSYM    DATA     BYTE      P0M0
      000000D0H   SFRSYM    DATA     BYTE      PSW
      0000009DH   SFRSYM    DATA     BYTE      IRCBAND
      00000097H   SFRSYM    DATA     BYTE      AUXR2
      000000EFH   SFRSYM    DATA     BYTE      AUXINTIF
      000000FDH   SFRSYM    DATA     BYTE      S4CON
      000000ACH   SFRSYM    DATA     BYTE      S3CON
      0000009AH   SFRSYM    DATA     BYTE      S2CON
      000000B7H   SFRSYM    DATA     BYTE      IPH
      000000CDH   SFRSYM    DATA     BYTE      SPSTAT
      000000DDH   SFRSYM    DATA     BYTE      T4T3M
      000000C1H   SFRSYM    DATA     BYTE      WDT_CONTR
      000000DFH   SFRSYM    DATA     BYTE      IP3
      000000F4H   SFRSYM    DATA     BYTE      USBCON
      000000B5H   SFRSYM    DATA     BYTE      IP2
      000000FFH   SFRSYM    DATA     BYTE      RSTCFG
      000000C7H   SFRSYM    DATA     BYTE      IAP_CONTR
      0000008EH   SFRSYM    DATA     BYTE      AUXR
      000000AFH   SFRSYM    DATA     BYTE      IE2
      00000088H   SFRSYM    DATA     BYTE      TCON
      00000089H   SFRSYM    DATA     BYTE      TMOD
      00000098H   SFRSYM    DATA     BYTE      SCON
      00000087H   SFRSYM    DATA     BYTE      PCON
      000000BCH   SFRSYM    DATA     BYTE      ADC_CONTR
      000000D1H   SFRSYM    DATA     BYTE      PSW1
      000000E7H   SFRSYM    DATA     BYTE      CMPCR2
      000000E6H   SFRSYM    DATA     BYTE      CMPCR1
      000000DEH   SFRSYM    DATA     BYTE      ADCCFG
      000000B8H   SFRSYM    DATA     BYTE      IP
      0000008FH   SFRSYM    DATA     BYTE      INTCLKO
      000000EEH   SFRSYM    DATA     BYTE      IP3H
      000000B6H   SFRSYM    DATA     BYTE      IP2H
      000000BFH   SFRSYM    DATA     BYTE      P_SW4
      000000A8H   SFRSYM    DATA     BYTE      IE
      000000BBH   SFRSYM    DATA     BYTE      P_SW3
      000000BAH   SFRSYM    DATA     BYTE      P_SW2
      000000A2H   SFRSYM    DATA     BYTE      P_SW1
      000000CEH   SFRSYM    DATA     BYTE      SPCTL
      000000F8H   SFRSYM    DATA     BYTE      P7
      000000E8H   SFRSYM    DATA     BYTE      P6
      000000C8H   SFRSYM    DATA     BYTE      P5
      000000C0H   SFRSYM    DATA     BYTE      P4
      000000C9H   SFRSYM    DATA     BYTE      P5M1
      000000ABH   SFRSYM    DATA     BYTE      WKTCH
      000000B0H   SFRSYM    DATA     BYTE      P3
      000000B3H   SFRSYM    DATA     BYTE      P4M1
      000000CAH   SFRSYM    DATA     BYTE      P5M0
      000000A0H   SFRSYM    DATA     BYTE      P2
      000000B1H   SFRSYM    DATA     BYTE      P3M1
      000000B4H   SFRSYM    DATA     BYTE      P4M0
      00000090H   SFRSYM    DATA     BYTE      P1
      00000095H   SFRSYM    DATA     BYTE      P2M1
      000000B2H   SFRSYM    DATA     BYTE      P3M0
      00000080H   SFRSYM    DATA     BYTE      P0
      00000091H   SFRSYM    DATA     BYTE      P1M1
      00000096H   SFRSYM    DATA     BYTE      P2M0
      00000092H   SFRSYM    DATA     BYTE      P1M0
L251 LINKER/LOCATER V4.66.93.0                                                        06/12/2025  20:04:03  PAGE 61


      00000093H   SFRSYM    DATA     BYTE      P0M1
      00FF516CH   SYMBOL    CODE     ---       gpio_set_dir
      00FF7B5EH   SYMBOL    CODE     ---       gpio_set_mode

      00FF7B5EH   BLOCK     CODE     ---       LVL=0
      00012E6AH   SYMBOL    XDATA    INT       pin
      00012E6CH   SYMBOL    XDATA    INT       mode
      00FF7B5EH   LINE      CODE     ---       #45
      00FF7B6AH   LINE      CODE     ---       #51
      00FF7B82H   LINE      CODE     ---       #53
      00FF7BB9H   LINE      CODE     ---       #54
      00FF7BF0H   LINE      CODE     ---       #55
      00FF7BF3H   LINE      CODE     ---       #56
      00FF7BFFH   LINE      CODE     ---       #58
      00FF7C34H   LINE      CODE     ---       #59
      00FF7C37H   LINE      CODE     ---       #60
      00FF7C4FH   LINE      CODE     ---       #62
      00FF7C84H   LINE      CODE     ---       #63
      00FF7C87H   LINE      CODE     ---       #64
      00FF7C96H   LINE      CODE     ---       #66
      00FF7CD3H   LINE      CODE     ---       #68
      00FF7CD3H   LINE      CODE     ---       #70
      00FF7CEAH   LINE      CODE     ---       #71
      00FF7D01H   LINE      CODE     ---       #73
      00FF7D04H   LINE      CODE     ---       #75
      00FF7D04H   LINE      CODE     ---       #77
      00FF7D1BH   LINE      CODE     ---       #78
      00FF7D32H   LINE      CODE     ---       #80
      00FF7D35H   LINE      CODE     ---       #82
      00FF7D35H   LINE      CODE     ---       #84
      00FF7D4CH   LINE      CODE     ---       #85
      00FF7D63H   LINE      CODE     ---       #87
      00FF7D66H   LINE      CODE     ---       #89
      00FF7D66H   LINE      CODE     ---       #91
      00FF7D7DH   LINE      CODE     ---       #92
      00FF7D94H   LINE      CODE     ---       #94
      00FF7D96H   LINE      CODE     ---       #96
      00FF7D96H   LINE      CODE     ---       #98
      00FF7DADH   LINE      CODE     ---       #99
      00FF7DC4H   LINE      CODE     ---       #101
      00FF7DC6H   LINE      CODE     ---       #103
      00FF7DC6H   LINE      CODE     ---       #105
      00FF7DDDH   LINE      CODE     ---       #106
      00FF7DF4H   LINE      CODE     ---       #108
      00FF7DF4H   LINE      CODE     ---       #109
      00FF7DF4H   LINE      CODE     ---       #112
      00FF7DF4H   LINE      CODE     ---       #113
      00FF7DF4H   LINE      CODE     ---       #114
      00FF7DF4H   LINE      CODE     ---       #119
      00FF7DF4H   LINE      CODE     ---       #120
      ---         BLOCKEND  ---      ---       LVL=0

      00FF75DEH   BLOCK     CODE     ---       LVL=0
      00012E6EH   SYMBOL    XDATA    INT       pin
      00012E70H   SYMBOL    XDATA    INT       speed
      00FF75DEH   LINE      CODE     ---       #123
      00FF75EAH   LINE      CODE     ---       #125
      00FF762AH   LINE      CODE     ---       #127
      00FF762AH   LINE      CODE     ---       #129
      00FF7634H   LINE      CODE     ---       #131
      00FF765BH   LINE      CODE     ---       #132
      00FF765EH   LINE      CODE     ---       #133
      00FF766DH   LINE      CODE     ---       #135
      00FF7692H   LINE      CODE     ---       #136
      00FF7695H   LINE      CODE     ---       #141
L251 LINKER/LOCATER V4.66.93.0                                                        06/12/2025  20:04:03  PAGE 62


      00FF7695H   LINE      CODE     ---       #143
      00FF7695H   LINE      CODE     ---       #145
      00FF7695H   LINE      CODE     ---       #147
      00FF769FH   LINE      CODE     ---       #149
      00FF76C6H   LINE      CODE     ---       #150
      00FF76C9H   LINE      CODE     ---       #151
      00FF76D8H   LINE      CODE     ---       #153
      00FF76FDH   LINE      CODE     ---       #154
      00FF7700H   LINE      CODE     ---       #159
      00FF7700H   LINE      CODE     ---       #161
      00FF7700H   LINE      CODE     ---       #163
      00FF7700H   LINE      CODE     ---       #165
      00FF770AH   LINE      CODE     ---       #167
      00FF7731H   LINE      CODE     ---       #168
      00FF7734H   LINE      CODE     ---       #169
      00FF7743H   LINE      CODE     ---       #171
      00FF7768H   LINE      CODE     ---       #172
      00FF776BH   LINE      CODE     ---       #177
      00FF776BH   LINE      CODE     ---       #179
      00FF776BH   LINE      CODE     ---       #181
      00FF776BH   LINE      CODE     ---       #183
      00FF7775H   LINE      CODE     ---       #185
      00FF779CH   LINE      CODE     ---       #186
      00FF779FH   LINE      CODE     ---       #187
      00FF77AEH   LINE      CODE     ---       #189
      00FF77D3H   LINE      CODE     ---       #190
      00FF77D6H   LINE      CODE     ---       #195
      00FF77D6H   LINE      CODE     ---       #197
      00FF77D6H   LINE      CODE     ---       #199
      00FF77D6H   LINE      CODE     ---       #201
      00FF77E0H   LINE      CODE     ---       #203
      00FF7807H   LINE      CODE     ---       #204
      00FF780AH   LINE      CODE     ---       #205
      00FF7819H   LINE      CODE     ---       #207
      00FF783EH   LINE      CODE     ---       #208
      00FF7840H   LINE      CODE     ---       #213
      00FF7840H   LINE      CODE     ---       #215
      00FF7840H   LINE      CODE     ---       #217
      00FF7840H   LINE      CODE     ---       #219
      00FF784AH   LINE      CODE     ---       #221
      00FF7871H   LINE      CODE     ---       #222
      00FF7873H   LINE      CODE     ---       #223
      00FF787FH   LINE      CODE     ---       #225
      00FF78A4H   LINE      CODE     ---       #226
      00FF78A4H   LINE      CODE     ---       #231
      00FF78A4H   LINE      CODE     ---       #233
      00FF78A4H   LINE      CODE     ---       #235
      00FF78A4H   LINE      CODE     ---       #239
      00FF78A4H   LINE      CODE     ---       #240
      00FF78A4H   LINE      CODE     ---       #241
      ---         BLOCKEND  ---      ---       LVL=0

      00FF516CH   BLOCK     CODE     ---       LVL=0
      00012E72H   SYMBOL    XDATA    INT       pin
      00012E74H   SYMBOL    XDATA    INT       dir
      00FF516CH   LINE      CODE     ---       #245
      00FF5178H   LINE      CODE     ---       #247
      00FF51B8H   LINE      CODE     ---       #249
      00FF51B8H   LINE      CODE     ---       #251
      00FF51C4H   LINE      CODE     ---       #253
      00FF51DDH   LINE      CODE     ---       #254
      00FF51F6H   LINE      CODE     ---       #255
      00FF51F9H   LINE      CODE     ---       #261
      00FF5205H   LINE      CODE     ---       #263
      00FF521EH   LINE      CODE     ---       #264
L251 LINKER/LOCATER V4.66.93.0                                                        06/12/2025  20:04:03  PAGE 63


      00FF5235H   LINE      CODE     ---       #265
      00FF5238H   LINE      CODE     ---       #266
      00FF5245H   LINE      CODE     ---       #268
      00FF525CH   LINE      CODE     ---       #269
      00FF5275H   LINE      CODE     ---       #270
      00FF5275H   LINE      CODE     ---       #272
      00FF5278H   LINE      CODE     ---       #274
      00FF5278H   LINE      CODE     ---       #276
      00FF5284H   LINE      CODE     ---       #278
      00FF529DH   LINE      CODE     ---       #279
      00FF52B6H   LINE      CODE     ---       #280
      00FF52B9H   LINE      CODE     ---       #286
      00FF52C5H   LINE      CODE     ---       #288
      00FF52DEH   LINE      CODE     ---       #289
      00FF52F5H   LINE      CODE     ---       #290
      00FF52F8H   LINE      CODE     ---       #291
      00FF5305H   LINE      CODE     ---       #293
      00FF531CH   LINE      CODE     ---       #294
      00FF5335H   LINE      CODE     ---       #295
      00FF5335H   LINE      CODE     ---       #297
      00FF5338H   LINE      CODE     ---       #299
      00FF5338H   LINE      CODE     ---       #301
      00FF5344H   LINE      CODE     ---       #303
      00FF535DH   LINE      CODE     ---       #304
      00FF5376H   LINE      CODE     ---       #305
      00FF5379H   LINE      CODE     ---       #311
      00FF5385H   LINE      CODE     ---       #313
      00FF539EH   LINE      CODE     ---       #314
      00FF53B5H   LINE      CODE     ---       #315
      00FF53B8H   LINE      CODE     ---       #316
      00FF53C5H   LINE      CODE     ---       #318
      00FF53DCH   LINE      CODE     ---       #319
      00FF53F5H   LINE      CODE     ---       #320
      00FF53F5H   LINE      CODE     ---       #322
      00FF53F8H   LINE      CODE     ---       #324
      00FF53F8H   LINE      CODE     ---       #326
      00FF5404H   LINE      CODE     ---       #328
      00FF541DH   LINE      CODE     ---       #329
      00FF5436H   LINE      CODE     ---       #330
      00FF5439H   LINE      CODE     ---       #336
      00FF5445H   LINE      CODE     ---       #338
      00FF545EH   LINE      CODE     ---       #339
      00FF5475H   LINE      CODE     ---       #340
      00FF5478H   LINE      CODE     ---       #341
      00FF5485H   LINE      CODE     ---       #343
      00FF549CH   LINE      CODE     ---       #344
      00FF54B5H   LINE      CODE     ---       #345
      00FF54B5H   LINE      CODE     ---       #347
      00FF54B8H   LINE      CODE     ---       #349
      00FF54B8H   LINE      CODE     ---       #351
      00FF54C4H   LINE      CODE     ---       #353
      00FF54DDH   LINE      CODE     ---       #354
      00FF54F6H   LINE      CODE     ---       #355
      00FF54F9H   LINE      CODE     ---       #361
      00FF5505H   LINE      CODE     ---       #363
      00FF551EH   LINE      CODE     ---       #364
      00FF5535H   LINE      CODE     ---       #365
      00FF5538H   LINE      CODE     ---       #366
      00FF5545H   LINE      CODE     ---       #368
      00FF555CH   LINE      CODE     ---       #369
      00FF5575H   LINE      CODE     ---       #370
      00FF5575H   LINE      CODE     ---       #372
      00FF5578H   LINE      CODE     ---       #374
      00FF5578H   LINE      CODE     ---       #376
      00FF5584H   LINE      CODE     ---       #378
L251 LINKER/LOCATER V4.66.93.0                                                        06/12/2025  20:04:03  PAGE 64


      00FF559DH   LINE      CODE     ---       #379
      00FF55B6H   LINE      CODE     ---       #380
      00FF55B8H   LINE      CODE     ---       #386
      00FF55C4H   LINE      CODE     ---       #388
      00FF55DDH   LINE      CODE     ---       #389
      00FF55F4H   LINE      CODE     ---       #390
      00FF55F6H   LINE      CODE     ---       #391
      00FF5600H   LINE      CODE     ---       #393
      00FF5617H   LINE      CODE     ---       #394
      00FF5630H   LINE      CODE     ---       #395
      00FF5630H   LINE      CODE     ---       #397
      00FF5630H   LINE      CODE     ---       #399
      00FF5630H   LINE      CODE     ---       #403
      00FF5630H   LINE      CODE     ---       #404
      00FF5630H   LINE      CODE     ---       #405
      ---         BLOCKEND  ---      ---       LVL=0

      00FFB6FFH   BLOCK     CODE     ---       LVL=0
      00012EB1H   SYMBOL    XDATA    INT       pin
      00FFB705H   BLOCK     CODE     NEAR LAB  LVL=1
      00012EB3H   SYMBOL    XDATA    BYTE      status
      ---         BLOCKEND  ---      ---       LVL=1
      00FFB6FFH   LINE      CODE     ---       #413
      00FFB705H   LINE      CODE     ---       #414
      00FFB705H   LINE      CODE     ---       #415
      00FFB70AH   LINE      CODE     ---       #417
      00FFB741H   LINE      CODE     ---       #419
      00FFB741H   LINE      CODE     ---       #421
      00FFB75EH   LINE      CODE     ---       #423
      00FFB761H   LINE      CODE     ---       #425
      00FFB761H   LINE      CODE     ---       #427
      00FFB77EH   LINE      CODE     ---       #429
      00FFB780H   LINE      CODE     ---       #431
      00FFB780H   LINE      CODE     ---       #433
      00FFB79DH   LINE      CODE     ---       #435
      00FFB79FH   LINE      CODE     ---       #437
      00FFB79FH   LINE      CODE     ---       #439
      00FFB7BCH   LINE      CODE     ---       #441
      00FFB7BEH   LINE      CODE     ---       #443
      00FFB7BEH   LINE      CODE     ---       #445
      00FFB7DBH   LINE      CODE     ---       #447
      00FFB7DDH   LINE      CODE     ---       #449
      00FFB7DDH   LINE      CODE     ---       #451
      00FFB7FAH   LINE      CODE     ---       #453
      00FFB7FAH   LINE      CODE     ---       #455
      00FFB7FAH   LINE      CODE     ---       #459
      00FFB7FAH   LINE      CODE     ---       #460
      00FFB7FAH   LINE      CODE     ---       #462
      00FFB805H   LINE      CODE     ---       #463
      ---         BLOCKEND  ---      ---       LVL=0

      00FFA377H   BLOCK     CODE     ---       LVL=0
      00012EB4H   SYMBOL    XDATA    INT       pin
      00012EB6H   SYMBOL    XDATA    BYTE      dat
      00FFA377H   LINE      CODE     ---       #472
      00FFA381H   LINE      CODE     ---       #474
      00FFA3BEH   LINE      CODE     ---       #476
      00FFA3BEH   LINE      CODE     ---       #478
      00FFA3C4H   LINE      CODE     ---       #480
      00FFA3DBH   LINE      CODE     ---       #481
      00FFA3DEH   LINE      CODE     ---       #484
      00FFA3F7H   LINE      CODE     ---       #485
      00FFA3F7H   LINE      CODE     ---       #487
      00FFA3FAH   LINE      CODE     ---       #489
      00FFA3FAH   LINE      CODE     ---       #491
L251 LINKER/LOCATER V4.66.93.0                                                        06/12/2025  20:04:03  PAGE 65


      00FFA400H   LINE      CODE     ---       #493
      00FFA417H   LINE      CODE     ---       #494
      00FFA41AH   LINE      CODE     ---       #497
      00FFA433H   LINE      CODE     ---       #498
      00FFA433H   LINE      CODE     ---       #500
      00FFA436H   LINE      CODE     ---       #502
      00FFA436H   LINE      CODE     ---       #504
      00FFA43CH   LINE      CODE     ---       #506
      00FFA453H   LINE      CODE     ---       #507
      00FFA456H   LINE      CODE     ---       #510
      00FFA46FH   LINE      CODE     ---       #511
      00FFA46FH   LINE      CODE     ---       #513
      00FFA472H   LINE      CODE     ---       #515
      00FFA472H   LINE      CODE     ---       #517
      00FFA478H   LINE      CODE     ---       #519
      00FFA48FH   LINE      CODE     ---       #520
      00FFA492H   LINE      CODE     ---       #523
      00FFA4ABH   LINE      CODE     ---       #524
      00FFA4ABH   LINE      CODE     ---       #526
      00FFA4ADH   LINE      CODE     ---       #528
      00FFA4ADH   LINE      CODE     ---       #530
      00FFA4B3H   LINE      CODE     ---       #532
      00FFA4CAH   LINE      CODE     ---       #533
      00FFA4CCH   LINE      CODE     ---       #536
      00FFA4E5H   LINE      CODE     ---       #537
      00FFA4E5H   LINE      CODE     ---       #539
      00FFA4E7H   LINE      CODE     ---       #541
      00FFA4E7H   LINE      CODE     ---       #543
      00FFA4EDH   LINE      CODE     ---       #545
      00FFA504H   LINE      CODE     ---       #546
      00FFA506H   LINE      CODE     ---       #549
      00FFA51FH   LINE      CODE     ---       #550
      00FFA51FH   LINE      CODE     ---       #552
      00FFA51FH   LINE      CODE     ---       #554
      00FFA51FH   LINE      CODE     ---       #558
      00FFA51FH   LINE      CODE     ---       #559
      00FFA51FH   LINE      CODE     ---       #560
      ---         BLOCKEND  ---      ---       LVL=0
      00012ED4H   SYMBOL    XDATA    INT       pin

      00FFAE78H   BLOCK     CODE     ---       LVL=0
      00012ED6H   SYMBOL    XDATA    INT       pin
      00FFAE78H   LINE      CODE     ---       #587
      00FFAE7EH   LINE      CODE     ---       #589
      00FFAEBBH   LINE      CODE     ---       #591
      00FFAEBBH   LINE      CODE     ---       #593
      00FFAED2H   LINE      CODE     ---       #594
      00FFAEEBH   LINE      CODE     ---       #596
      00FFAEEEH   LINE      CODE     ---       #598
      00FFAEEEH   LINE      CODE     ---       #600
      00FFAF05H   LINE      CODE     ---       #601
      00FFAF1EH   LINE      CODE     ---       #603
      00FFAF21H   LINE      CODE     ---       #605
      00FFAF21H   LINE      CODE     ---       #607
      00FFAF38H   LINE      CODE     ---       #608
      00FFAF51H   LINE      CODE     ---       #610
      00FFAF54H   LINE      CODE     ---       #612
      00FFAF54H   LINE      CODE     ---       #614
      00FFAF6BH   LINE      CODE     ---       #615
      00FFAF84H   LINE      CODE     ---       #617
      00FFAF86H   LINE      CODE     ---       #619
      00FFAF86H   LINE      CODE     ---       #621
      00FFAF9DH   LINE      CODE     ---       #622
      00FFAFB6H   LINE      CODE     ---       #624
      00FFAFB8H   LINE      CODE     ---       #626
L251 LINKER/LOCATER V4.66.93.0                                                        06/12/2025  20:04:03  PAGE 66


      00FFAFB8H   LINE      CODE     ---       #628
      00FFAFCFH   LINE      CODE     ---       #629
      00FFAFE8H   LINE      CODE     ---       #631
      00FFAFE8H   LINE      CODE     ---       #633
      00FFAFE8H   LINE      CODE     ---       #637
      00FFAFE8H   LINE      CODE     ---       #638
      00FFAFE8H   LINE      CODE     ---       #639
      ---         BLOCKEND  ---      ---       LVL=0

      00FFBE60H   BLOCK     CODE     ---       LVL=0
      00012D9AH   SYMBOL    XDATA    INT       pin
      00012D9CH   SYMBOL    XDATA    INT       dir
      00012D9EH   SYMBOL    XDATA    BYTE      dat
      00012D9FH   SYMBOL    XDATA    INT       mode
      00FFBE60H   LINE      CODE     ---       #650
      00FFBE76H   LINE      CODE     ---       #654
      00FFBE82H   LINE      CODE     ---       #656
      00FFBE8FH   LINE      CODE     ---       #657
      00FFBE9EH   LINE      CODE     ---       #658
      00FFBEA1H   LINE      CODE     ---       #659
      00FFBEABH   LINE      CODE     ---       #661
      00FFBEB5H   LINE      CODE     ---       #663
      00FFBEBEH   LINE      CODE     ---       #664
      00FFBEC0H   LINE      CODE     ---       #667
      00FFBECBH   LINE      CODE     ---       #668
      00FFBEDAH   LINE      CODE     ---       #669
      00FFBEDAH   LINE      CODE     ---       #670
      00FFBEDCH   LINE      CODE     ---       #671
      00FFBEE8H   LINE      CODE     ---       #673
      00FFBEF4H   LINE      CODE     ---       #675
      00FFBF01H   LINE      CODE     ---       #676
      00FFBF0EH   LINE      CODE     ---       #677
      00FFBF10H   LINE      CODE     ---       #678
      00FFBF1CH   LINE      CODE     ---       #680
      00FFBF29H   LINE      CODE     ---       #681
      00FFBF29H   LINE      CODE     ---       #683
      00FFBF36H   LINE      CODE     ---       #684
      ---         BLOCKEND  ---      ---       LVL=0

      ---         MODULE    ---      ---       zf_driver_pit
      00FF72EBH   PUBLIC    CODE     ---       pit_init
      000000D0H   SFRSYM    DATA     BYTE      PSW
      0000009DH   SFRSYM    DATA     BYTE      IRCBAND
      00000097H   SFRSYM    DATA     BYTE      AUXR2
      000000EFH   SFRSYM    DATA     BYTE      AUXINTIF
      000000FDH   SFRSYM    DATA     BYTE      S4CON
      000000ACH   SFRSYM    DATA     BYTE      S3CON
      0000009AH   SFRSYM    DATA     BYTE      S2CON
      000000B7H   SFRSYM    DATA     BYTE      IPH
      000000CDH   SFRSYM    DATA     BYTE      SPSTAT
      000000DDH   SFRSYM    DATA     BYTE      T4T3M
      000000C1H   SFRSYM    DATA     BYTE      WDT_CONTR
      00000088H.6 SFRSYM    DATA     BIT       TR1
      00000088H.4 SFRSYM    DATA     BIT       TR0
      000000D3H   SFRSYM    DATA     BYTE      T4L
      000000D5H   SFRSYM    DATA     BYTE      T3L
      000000D7H   SFRSYM    DATA     BYTE      T2L
      0000008BH   SFRSYM    DATA     BYTE      TL1
      0000008AH   SFRSYM    DATA     BYTE      TL0
      000000D2H   SFRSYM    DATA     BYTE      T4H
      000000D4H   SFRSYM    DATA     BYTE      T3H
      000000D6H   SFRSYM    DATA     BYTE      T2H
      0000008DH   SFRSYM    DATA     BYTE      TH1
      0000008CH   SFRSYM    DATA     BYTE      TH0
      000000DFH   SFRSYM    DATA     BYTE      IP3
L251 LINKER/LOCATER V4.66.93.0                                                        06/12/2025  20:04:03  PAGE 67


      000000F4H   SFRSYM    DATA     BYTE      USBCON
      000000B5H   SFRSYM    DATA     BYTE      IP2
      000000FFH   SFRSYM    DATA     BYTE      RSTCFG
      000000A8H.3 SFRSYM    DATA     BIT       ET1
      000000A8H.1 SFRSYM    DATA     BIT       ET0
      000000C7H   SFRSYM    DATA     BYTE      IAP_CONTR
      0000008EH   SFRSYM    DATA     BYTE      AUXR
      000000AFH   SFRSYM    DATA     BYTE      IE2
      00000088H   SFRSYM    DATA     BYTE      TCON
      00000089H   SFRSYM    DATA     BYTE      TMOD
      00000098H   SFRSYM    DATA     BYTE      SCON
      00000087H   SFRSYM    DATA     BYTE      PCON
      000000BCH   SFRSYM    DATA     BYTE      ADC_CONTR
      000000D1H   SFRSYM    DATA     BYTE      PSW1
      000000E7H   SFRSYM    DATA     BYTE      CMPCR2
      000000E6H   SFRSYM    DATA     BYTE      CMPCR1
      000000DEH   SFRSYM    DATA     BYTE      ADCCFG
      000000B8H   SFRSYM    DATA     BYTE      IP
      0000008FH   SFRSYM    DATA     BYTE      INTCLKO
      000000EEH   SFRSYM    DATA     BYTE      IP3H
      000000B6H   SFRSYM    DATA     BYTE      IP2H
      000000BFH   SFRSYM    DATA     BYTE      P_SW4
      000000A8H   SFRSYM    DATA     BYTE      IE
      000000BBH   SFRSYM    DATA     BYTE      P_SW3
      000000BAH   SFRSYM    DATA     BYTE      P_SW2
      000000A2H   SFRSYM    DATA     BYTE      P_SW1
      000000CEH   SFRSYM    DATA     BYTE      SPCTL
      000000F8H   SFRSYM    DATA     BYTE      P7
      000000E8H   SFRSYM    DATA     BYTE      P6
      000000C8H   SFRSYM    DATA     BYTE      P5
      000000C0H   SFRSYM    DATA     BYTE      P4
      000000ABH   SFRSYM    DATA     BYTE      WKTCH
      000000B0H   SFRSYM    DATA     BYTE      P3
      000000A0H   SFRSYM    DATA     BYTE      P2
      00000090H   SFRSYM    DATA     BYTE      P1
      00000080H   SFRSYM    DATA     BYTE      P0

      00FF72EBH   BLOCK     CODE     ---       LVL=0
      00012C34H   SYMBOL    XDATA    INT       pit_n
      00012C36H   SYMBOL    XDATA    DWORD     period
      00FF72FBH   BLOCK     CODE     NEAR LAB  LVL=1
      00012C3AH   SYMBOL    XDATA    BYTE      freq_div
      00012C3BH   SYMBOL    XDATA    WORD      period_temp
      00012C3DH   SYMBOL    XDATA    WORD      temp
      ---         BLOCKEND  ---      ---       LVL=1
      00FF72EBH   LINE      CODE     ---       #50
      00FF72FBH   LINE      CODE     ---       #51
      00FF72FBH   LINE      CODE     ---       #52
      00FF7300H   LINE      CODE     ---       #53
      00FF7308H   LINE      CODE     ---       #54
      00FF7310H   LINE      CODE     ---       #57
      00FF7329H   LINE      CODE     ---       #60
      00FF7341H   LINE      CODE     ---       #62
      00FF734BH   LINE      CODE     ---       #64
      00FF734EH   LINE      CODE     ---       #65
      00FF7351H   LINE      CODE     ---       #66
      00FF735DH   LINE      CODE     ---       #68
      00FF7360H   LINE      CODE     ---       #69
      00FF7363H   LINE      CODE     ---       #70
      00FF736FH   LINE      CODE     ---       #72
      00FF7372H   LINE      CODE     ---       #73
      00FF7375H   LINE      CODE     ---       #74
      00FF7381H   LINE      CODE     ---       #76
      00FF7384H   LINE      CODE     ---       #77
      00FF7387H   LINE      CODE     ---       #78
L251 LINKER/LOCATER V4.66.93.0                                                        06/12/2025  20:04:03  PAGE 68


      00FF7393H   LINE      CODE     ---       #80
      00FF7396H   LINE      CODE     ---       #81
      00FF7399H   LINE      CODE     ---       #82
      00FF73A8H   LINE      CODE     ---       #84
      00FF73B8H   LINE      CODE     ---       #85
      00FF73BAH   LINE      CODE     ---       #91
      00FF73C4H   LINE      CODE     ---       #93
      00FF73C7H   LINE      CODE     ---       #94
      00FF73C9H   LINE      CODE     ---       #95
      00FF73D5H   LINE      CODE     ---       #97
      00FF73D8H   LINE      CODE     ---       #98
      00FF73DAH   LINE      CODE     ---       #99
      00FF73E6H   LINE      CODE     ---       #101
      00FF73E9H   LINE      CODE     ---       #102
      00FF73EBH   LINE      CODE     ---       #103
      00FF73F7H   LINE      CODE     ---       #105
      00FF73FAH   LINE      CODE     ---       #106
      00FF73FCH   LINE      CODE     ---       #107
      00FF7408H   LINE      CODE     ---       #109
      00FF740BH   LINE      CODE     ---       #110
      00FF740DH   LINE      CODE     ---       #111
      00FF7419H   LINE      CODE     ---       #113
      00FF7429H   LINE      CODE     ---       #114
      00FF7429H   LINE      CODE     ---       #118
      00FF7447H   LINE      CODE     ---       #119
      00FF7464H   LINE      CODE     ---       #121
      00FF7476H   LINE      CODE     ---       #123
      00FF7480H   LINE      CODE     ---       #125
      00FF748FH   LINE      CODE     ---       #126
      00FF7493H   LINE      CODE     ---       #127
      00FF749BH   LINE      CODE     ---       #128
      00FF74A7H   LINE      CODE     ---       #129
      00FF74A9H   LINE      CODE     ---       #130
      00FF74ABH   LINE      CODE     ---       #131
      00FF74AEH   LINE      CODE     ---       #132
      00FF74BAH   LINE      CODE     ---       #134
      00FF74C9H   LINE      CODE     ---       #135
      00FF74CDH   LINE      CODE     ---       #136
      00FF74D5H   LINE      CODE     ---       #137
      00FF74E1H   LINE      CODE     ---       #138
      00FF74E3H   LINE      CODE     ---       #139
      00FF74E5H   LINE      CODE     ---       #140
      00FF74E8H   LINE      CODE     ---       #141
      00FF74F4H   LINE      CODE     ---       #143
      00FF7503H   LINE      CODE     ---       #144
      00FF750BH   LINE      CODE     ---       #145
      00FF7517H   LINE      CODE     ---       #146
      00FF751AH   LINE      CODE     ---       #147
      00FF751DH   LINE      CODE     ---       #148
      00FF7520H   LINE      CODE     ---       #149
      00FF752CH   LINE      CODE     ---       #151
      00FF753BH   LINE      CODE     ---       #152
      00FF7543H   LINE      CODE     ---       #153
      00FF754FH   LINE      CODE     ---       #154
      00FF7552H   LINE      CODE     ---       #155
      00FF7555H   LINE      CODE     ---       #156
      00FF7558H   LINE      CODE     ---       #157
      00FF7564H   LINE      CODE     ---       #159
      00FF7573H   LINE      CODE     ---       #160
      00FF757BH   LINE      CODE     ---       #161
      00FF7587H   LINE      CODE     ---       #162
      00FF758AH   LINE      CODE     ---       #163
      00FF758DH   LINE      CODE     ---       #164
      00FF758FH   LINE      CODE     ---       #165
      00FF759BH   LINE      CODE     ---       #167
L251 LINKER/LOCATER V4.66.93.0                                                        06/12/2025  20:04:03  PAGE 69


      00FF75AAH   LINE      CODE     ---       #168
      00FF75BBH   LINE      CODE     ---       #169
      00FF75D0H   LINE      CODE     ---       #170
      00FF75DDH   LINE      CODE     ---       #172
      ---         BLOCKEND  ---      ---       LVL=0

      ---         MODULE    ---      ---       zf_driver_pwm
      00FFA865H   PUBLIC    CODE     ---       pwm_set_duty
      00FF417DH   PUBLIC    CODE     ---       pwm_init
      00FFF638H   PUBLIC    HCONST   ---       PWM_PSCR_ADDR
      00FFF640H   PUBLIC    HCONST   ---       PWM_CCR_ADDR
      00FFF660H   PUBLIC    HCONST   ---       PWM_ARR_ADDR
      00FFF668H   PUBLIC    HCONST   ---       PWM_CCER_ADDR
      00FFF678H   PUBLIC    HCONST   ---       PWM_CCMR_ADDR
      000129E8H   PUBLIC    XDATA    BYTE      ?pwm_set_freq?BYTE
      00012A71H   PUBLIC    XDATA    BYTE      ?pwm_init?BYTE
      000000D0H   SFRSYM    DATA     BYTE      PSW
      0000009DH   SFRSYM    DATA     BYTE      IRCBAND
      00000097H   SFRSYM    DATA     BYTE      AUXR2
      000000EFH   SFRSYM    DATA     BYTE      AUXINTIF
      000000FDH   SFRSYM    DATA     BYTE      S4CON
      000000ACH   SFRSYM    DATA     BYTE      S3CON
      0000009AH   SFRSYM    DATA     BYTE      S2CON
      000000B7H   SFRSYM    DATA     BYTE      IPH
      000000CDH   SFRSYM    DATA     BYTE      SPSTAT
      000000DDH   SFRSYM    DATA     BYTE      T4T3M
      000000C1H   SFRSYM    DATA     BYTE      WDT_CONTR
      000000DFH   SFRSYM    DATA     BYTE      IP3
      000000F4H   SFRSYM    DATA     BYTE      USBCON
      000000B5H   SFRSYM    DATA     BYTE      IP2
      000000FFH   SFRSYM    DATA     BYTE      RSTCFG
      000000C7H   SFRSYM    DATA     BYTE      IAP_CONTR
      0000008EH   SFRSYM    DATA     BYTE      AUXR
      000000AFH   SFRSYM    DATA     BYTE      IE2
      00000088H   SFRSYM    DATA     BYTE      TCON
      00000089H   SFRSYM    DATA     BYTE      TMOD
      00000098H   SFRSYM    DATA     BYTE      SCON
      00000087H   SFRSYM    DATA     BYTE      PCON
      000000BCH   SFRSYM    DATA     BYTE      ADC_CONTR
      000000D1H   SFRSYM    DATA     BYTE      PSW1
      000000E7H   SFRSYM    DATA     BYTE      CMPCR2
      000000E6H   SFRSYM    DATA     BYTE      CMPCR1
      000000DEH   SFRSYM    DATA     BYTE      ADCCFG
      000000B8H   SFRSYM    DATA     BYTE      IP
      0000008FH   SFRSYM    DATA     BYTE      INTCLKO
      000000EEH   SFRSYM    DATA     BYTE      IP3H
      000000B6H   SFRSYM    DATA     BYTE      IP2H
      000000BFH   SFRSYM    DATA     BYTE      P_SW4
      000000A8H   SFRSYM    DATA     BYTE      IE
      000000BBH   SFRSYM    DATA     BYTE      P_SW3
      000000BAH   SFRSYM    DATA     BYTE      P_SW2
      000000A2H   SFRSYM    DATA     BYTE      P_SW1
      000000CEH   SFRSYM    DATA     BYTE      SPCTL
      000000F8H   SFRSYM    DATA     BYTE      P7
      000000E8H   SFRSYM    DATA     BYTE      P6
      000000C8H   SFRSYM    DATA     BYTE      P5
      000000C0H   SFRSYM    DATA     BYTE      P4
      000000ABH   SFRSYM    DATA     BYTE      WKTCH
      000000B0H   SFRSYM    DATA     BYTE      P3
      000000A0H   SFRSYM    DATA     BYTE      P2
      00000090H   SFRSYM    DATA     BYTE      P1
      00000080H   SFRSYM    DATA     BYTE      P0
      000129E8H   SYMBOL    XDATA    INT       pin
      000129EAH   SYMBOL    XDATA    DWORD     freq
      000129EEH   SYMBOL    XDATA    DWORD     duty
L251 LINKER/LOCATER V4.66.93.0                                                        06/12/2025  20:04:03  PAGE 70


      000129F2H   SYMBOL    XDATA    DWORD     match_temp
      000129F6H   SYMBOL    XDATA    DWORD     period_temp
      000129FAH   SYMBOL    XDATA    WORD      freq_div

      00FFA865H   BLOCK     CODE     ---       LVL=0
      00012AE0H   SYMBOL    XDATA    INT       pin
      00012AE2H   SYMBOL    XDATA    DWORD     duty
      00FFA875H   BLOCK     CODE     NEAR LAB  LVL=1
      00012AE6H   SYMBOL    XDATA    DWORD     match_temp
      00012AEAH   SYMBOL    XDATA    DWORD     arr
      ---         BLOCKEND  ---      ---       LVL=1
      00FFA865H   LINE      CODE     ---       #132
      00FFA875H   LINE      CODE     ---       #133
      00FFA875H   LINE      CODE     ---       #135
      00FFA8DFH   LINE      CODE     ---       #140
      00FFA8EFH   LINE      CODE     ---       #142
      00FFA928H   LINE      CODE     ---       #143
      00FFA92AH   LINE      CODE     ---       #146
      00FFA940H   LINE      CODE     ---       #147
      00FFA940H   LINE      CODE     ---       #150
      00FFA996H   LINE      CODE     ---       #151
      00FFA9ECH   LINE      CODE     ---       #153
      ---         BLOCKEND  ---      ---       LVL=0

      00FF417DH   BLOCK     CODE     ---       LVL=0
      00012A71H   SYMBOL    XDATA    INT       pin
      00012A73H   SYMBOL    XDATA    DWORD     freq
      00012A77H   SYMBOL    XDATA    DWORD     duty
      00FF418DH   BLOCK     CODE     NEAR LAB  LVL=1
      00012A7BH   SYMBOL    XDATA    WORD      match_temp
      00012A7DH   SYMBOL    XDATA    DWORD     period_temp
      00012A81H   SYMBOL    XDATA    WORD      freq_div
      ---         BLOCKEND  ---      ---       LVL=1
      00FF417DH   LINE      CODE     ---       #164
      00FF418DH   LINE      CODE     ---       #165
      00FF418DH   LINE      CODE     ---       #167
      00FF4195H   LINE      CODE     ---       #168
      00FF41A1H   LINE      CODE     ---       #169
      00FF41A9H   LINE      CODE     ---       #174
      00FF41BFH   LINE      CODE     ---       #178
      00FF41E0H   LINE      CODE     ---       #179
      00FF4201H   LINE      CODE     ---       #180
      00FF4222H   LINE      CODE     ---       #182
      00FF4232H   LINE      CODE     ---       #184
      00FF4267H   LINE      CODE     ---       #185
      00FF4269H   LINE      CODE     ---       #188
      00FF427BH   LINE      CODE     ---       #189
      00FF427BH   LINE      CODE     ---       #191
      00FF42AFH   LINE      CODE     ---       #192
      00FF42E1H   LINE      CODE     ---       #194
      00FF4317H   LINE      CODE     ---       #195
      00FF434DH   LINE      CODE     ---       #197
      00FF43A1H   LINE      CODE     ---       #198
      00FF43F3H   LINE      CODE     ---       #200
      00FF4406H   LINE      CODE     ---       #202
      00FF444FH   LINE      CODE     ---       #203
      00FF448EH   LINE      CODE     ---       #204
      00FF451EH   LINE      CODE     ---       #206
      00FF452BH   LINE      CODE     ---       #207
      00FF4538H   LINE      CODE     ---       #208
      00FF453BH   LINE      CODE     ---       #209
      00FF4552H   LINE      CODE     ---       #211
      00FF459BH   LINE      CODE     ---       #212
      00FF45DAH   LINE      CODE     ---       #213
      00FF4654H   LINE      CODE     ---       #215
L251 LINKER/LOCATER V4.66.93.0                                                        06/12/2025  20:04:03  PAGE 71


      00FF4661H   LINE      CODE     ---       #216
      00FF466EH   LINE      CODE     ---       #217
      00FF466EH   LINE      CODE     ---       #219
      00FF46BDH   LINE      CODE     ---       #220
      00FF470CH   LINE      CODE     ---       #221
      ---         BLOCKEND  ---      ---       LVL=0

      ---         MODULE    ---      ---       zf_driver_soft_iic
      00FFC16DH   PUBLIC    CODE     ---       soft_iic_wait_ack
      00FFDEE6H   PUBLIC    CODE     ---       soft_iic_delay
      00012B68H   PUBLIC    XDATA    BYTE      ?soft_iic_write_8bit_array?BYTE
      00012B74H   PUBLIC    XDATA    BYTE      ?soft_iic_write_16bit_array?BYTE
      00012B41H   PUBLIC    XDATA    BYTE      ?soft_iic_write_8bit_registers?BYTE
      00012AEEH   PUBLIC    XDATA    BYTE      ?soft_iic_write_16bit_registers?BYTE
      00012B80H   PUBLIC    XDATA    BYTE      ?soft_iic_read_8bit_array?BYTE
      00012B8CH   PUBLIC    XDATA    BYTE      ?soft_iic_read_16bit_array?BYTE
      00012B4EH   PUBLIC    XDATA    BYTE      ?soft_iic_read_8bit_registers?BYTE
      00012AFCH   PUBLIC    XDATA    BYTE      ?soft_iic_read_16bit_registers?BYTE
      000129FCH   PUBLIC    XDATA    BYTE      ?soft_iic_transfer_8bit_array?BYTE
      00012A10H   PUBLIC    XDATA    BYTE      ?soft_iic_transfer_16bit_array?BYTE
      00012B5BH   PUBLIC    XDATA    BYTE      ?soft_iic_init?BYTE
      000000D0H   SFRSYM    DATA     BYTE      PSW
      0000009DH   SFRSYM    DATA     BYTE      IRCBAND
      00000097H   SFRSYM    DATA     BYTE      AUXR2
      000000EFH   SFRSYM    DATA     BYTE      AUXINTIF
      000000FDH   SFRSYM    DATA     BYTE      S4CON
      000000ACH   SFRSYM    DATA     BYTE      S3CON
      0000009AH   SFRSYM    DATA     BYTE      S2CON
      000000B7H   SFRSYM    DATA     BYTE      IPH
      000000CDH   SFRSYM    DATA     BYTE      SPSTAT
      000000DDH   SFRSYM    DATA     BYTE      T4T3M
      000000C1H   SFRSYM    DATA     BYTE      WDT_CONTR
      000000DFH   SFRSYM    DATA     BYTE      IP3
      000000F4H   SFRSYM    DATA     BYTE      USBCON
      000000B5H   SFRSYM    DATA     BYTE      IP2
      000000FFH   SFRSYM    DATA     BYTE      RSTCFG
      000000C7H   SFRSYM    DATA     BYTE      IAP_CONTR
      0000008EH   SFRSYM    DATA     BYTE      AUXR
      000000AFH   SFRSYM    DATA     BYTE      IE2
      00000088H   SFRSYM    DATA     BYTE      TCON
      00000089H   SFRSYM    DATA     BYTE      TMOD
      00000098H   SFRSYM    DATA     BYTE      SCON
      00000087H   SFRSYM    DATA     BYTE      PCON
      000000BCH   SFRSYM    DATA     BYTE      ADC_CONTR
      000000D1H   SFRSYM    DATA     BYTE      PSW1
      000000E7H   SFRSYM    DATA     BYTE      CMPCR2
      000000E6H   SFRSYM    DATA     BYTE      CMPCR1
      000000DEH   SFRSYM    DATA     BYTE      ADCCFG
      000000B8H   SFRSYM    DATA     BYTE      IP
      0000008FH   SFRSYM    DATA     BYTE      INTCLKO
      000000EEH   SFRSYM    DATA     BYTE      IP3H
      000000B6H   SFRSYM    DATA     BYTE      IP2H
      000000BFH   SFRSYM    DATA     BYTE      P_SW4
      000000A8H   SFRSYM    DATA     BYTE      IE
      000000BBH   SFRSYM    DATA     BYTE      P_SW3
      000000BAH   SFRSYM    DATA     BYTE      P_SW2
      000000A2H   SFRSYM    DATA     BYTE      P_SW1
      000000CEH   SFRSYM    DATA     BYTE      SPCTL
      000000F8H   SFRSYM    DATA     BYTE      P7
      000000E8H   SFRSYM    DATA     BYTE      P6
      000000C8H   SFRSYM    DATA     BYTE      P5
      000000C0H   SFRSYM    DATA     BYTE      P4
      000000ABH   SFRSYM    DATA     BYTE      WKTCH
      000000B0H   SFRSYM    DATA     BYTE      P3
      000000A0H   SFRSYM    DATA     BYTE      P2
L251 LINKER/LOCATER V4.66.93.0                                                        06/12/2025  20:04:03  PAGE 72


      00000090H   SFRSYM    DATA     BYTE      P1
      00000080H   SFRSYM    DATA     BYTE      P0

      00FFDEE6H   BLOCK     CODE     ---       LVL=0
      00012D3AH   SYMBOL    XDATA    DWORD     delay
      00FFDEF0H   BLOCK     CODE     NEAR LAB  LVL=1
      00012D3EH   SYMBOL    XDATA    DWORD     count
      ---         BLOCKEND  ---      ---       LVL=1
      00FFDEE6H   LINE      CODE     ---       #53
      00FFDEF0H   LINE      CODE     ---       #54
      00FFDEF0H   LINE      CODE     ---       #55
      00FFDF04H   LINE      CODE     ---       #56
      00FFDF1DH   LINE      CODE     ---       #57
      ---         BLOCKEND  ---      ---       LVL=0
      00012E76H   SYMBOL    XDATA    ---       soft_iic_obj
      00012E7AH   SYMBOL    XDATA    ---       soft_iic_obj
      00012E20H   SYMBOL    XDATA    ---       soft_iic_obj
      00012E24H   SYMBOL    XDATA    BYTE      ack

      00FFC16DH   BLOCK     CODE     ---       LVL=0
      00012E25H   SYMBOL    XDATA    ---       soft_iic_obj
      00FFC177H   BLOCK     CODE     NEAR LAB  LVL=1
      00012E29H   SYMBOL    XDATA    BYTE      temp
      ---         BLOCKEND  ---      ---       LVL=1
      00FFC16DH   LINE      CODE     ---       #135
      00FFC177H   LINE      CODE     ---       #136
      00FFC177H   LINE      CODE     ---       #137
      00FFC17CH   LINE      CODE     ---       #140
      00FFC18DH   LINE      CODE     ---       #141
      00FFC1A0H   LINE      CODE     ---       #145
      00FFC1B5H   LINE      CODE     ---       #147
      00FFC1C7H   LINE      CODE     ---       #148
      00FFC1DCH   LINE      CODE     ---       #150
      00FFC1EFH   LINE      CODE     ---       #152
      00FFC1F5H   LINE      CODE     ---       #153
      00FFC1F5H   LINE      CODE     ---       #154
      00FFC206H   LINE      CODE     ---       #158
      00FFC21BH   LINE      CODE     ---       #160
      00FFC21FH   LINE      CODE     ---       #161
      ---         BLOCKEND  ---      ---       LVL=0
      00012DC8H   SYMBOL    XDATA    ---       soft_iic_obj
      00012DCCH   SYMBOL    XDATA    BYTE      dat
      00012DCDH   SYMBOL    XDATA    BYTE      temp
      00012DA1H   SYMBOL    XDATA    ---       soft_iic_obj
      00012DA5H   SYMBOL    XDATA    BYTE      ack
      00012DA6H   SYMBOL    XDATA    BYTE      dat
      00012DA7H   SYMBOL    XDATA    BYTE      temp
      00012E2AH   SYMBOL    XDATA    ---       soft_iic_obj
      00012E2EH   SYMBOL    XDATA    BYTE      dat
      00012B68H   SYMBOL    XDATA    ---       soft_iic_obj
      00012B6CH   SYMBOL    XDATA    ---       dat
      00012B70H   SYMBOL    XDATA    DWORD     len
      00012DCEH   SYMBOL    XDATA    ---       soft_iic_obj
      00012DD2H   SYMBOL    XDATA    WORD      dat
      00012B74H   SYMBOL    XDATA    ---       soft_iic_obj
      00012B78H   SYMBOL    XDATA    ---       dat
      00012B7CH   SYMBOL    XDATA    DWORD     len
      00012DD4H   SYMBOL    XDATA    ---       soft_iic_obj
      00012DD8H   SYMBOL    XDATA    BYTE      register_name
      00012DD9H   SYMBOL    XDATA    BYTE      dat
      00012B41H   SYMBOL    XDATA    ---       soft_iic_obj
      00012B45H   SYMBOL    XDATA    BYTE      register_name
      00012B46H   SYMBOL    XDATA    ---       dat
      00012B4AH   SYMBOL    XDATA    DWORD     len
      00012D42H   SYMBOL    XDATA    ---       soft_iic_obj
L251 LINKER/LOCATER V4.66.93.0                                                        06/12/2025  20:04:03  PAGE 73


      00012D46H   SYMBOL    XDATA    WORD      register_name
      00012D48H   SYMBOL    XDATA    WORD      dat
      00012AEEH   SYMBOL    XDATA    ---       soft_iic_obj
      00012AF2H   SYMBOL    XDATA    WORD      register_name
      00012AF4H   SYMBOL    XDATA    ---       dat
      00012AF8H   SYMBOL    XDATA    DWORD     len
      00012E2FH   SYMBOL    XDATA    ---       soft_iic_obj
      00012E33H   SYMBOL    XDATA    BYTE      temp
      00012B80H   SYMBOL    XDATA    ---       soft_iic_obj
      00012B84H   SYMBOL    XDATA    ---       dat
      00012B88H   SYMBOL    XDATA    DWORD     len
      00012DDAH   SYMBOL    XDATA    ---       soft_iic_obj
      00012DDEH   SYMBOL    XDATA    WORD      temp
      00012B8CH   SYMBOL    XDATA    ---       soft_iic_obj
      00012B90H   SYMBOL    XDATA    ---       dat
      00012B94H   SYMBOL    XDATA    DWORD     len
      00012DE0H   SYMBOL    XDATA    ---       soft_iic_obj
      00012DE4H   SYMBOL    XDATA    BYTE      register_name
      00012DE5H   SYMBOL    XDATA    BYTE      temp
      00012B4EH   SYMBOL    XDATA    ---       soft_iic_obj
      00012B52H   SYMBOL    XDATA    BYTE      register_name
      00012B53H   SYMBOL    XDATA    ---       dat
      00012B57H   SYMBOL    XDATA    DWORD     len
      00012D4AH   SYMBOL    XDATA    ---       soft_iic_obj
      00012D4EH   SYMBOL    XDATA    WORD      register_name
      00012D50H   SYMBOL    XDATA    WORD      temp
      00012AFCH   SYMBOL    XDATA    ---       soft_iic_obj
      00012B00H   SYMBOL    XDATA    WORD      register_name
      00012B02H   SYMBOL    XDATA    ---       dat
      00012B06H   SYMBOL    XDATA    DWORD     len
      000129FCH   SYMBOL    XDATA    ---       soft_iic_obj
      00012A00H   SYMBOL    XDATA    ---       write_data
      00012A04H   SYMBOL    XDATA    DWORD     write_len
      00012A08H   SYMBOL    XDATA    ---       read_data
      00012A0CH   SYMBOL    XDATA    DWORD     read_len
      00012A10H   SYMBOL    XDATA    ---       soft_iic_obj
      00012A14H   SYMBOL    XDATA    ---       write_data
      00012A18H   SYMBOL    XDATA    DWORD     write_len
      00012A1CH   SYMBOL    XDATA    ---       read_data
      00012A20H   SYMBOL    XDATA    DWORD     read_len
      00012DE6H   SYMBOL    XDATA    ---       soft_iic_obj
      00012DEAH   SYMBOL    XDATA    BYTE      register_name
      00012DEBH   SYMBOL    XDATA    BYTE      dat
      00012DECH   SYMBOL    XDATA    ---       soft_iic_obj
      00012DF0H   SYMBOL    XDATA    BYTE      register_name
      00012DF1H   SYMBOL    XDATA    BYTE      temp
      00012B5BH   SYMBOL    XDATA    ---       soft_iic_obj
      00012B5FH   SYMBOL    XDATA    BYTE      addr
      00012B60H   SYMBOL    XDATA    DWORD     delay
      00012B64H   SYMBOL    XDATA    INT       scl_pin
      00012B66H   SYMBOL    XDATA    INT       sda_pin

      ---         MODULE    ---      ---       zf_driver_spi
      00FFE147H   PUBLIC    CODE     ---       spi_write_8bit_register
      00FF00A6H   PUBLIC    CODE     ---       spi_write_8bit
      00FF5631H   PUBLIC    CODE     ---       spi_init
      00FFD07CH   PUBLIC    CODE     ---       spi_read_8bit_registers
      00FFDF55H   PUBLIC    CODE     ---       spi_write_16bit
      00FFD3B5H   PUBLIC    CODE     ---       spi_read_dat
      00FFD64FH   PUBLIC    CODE     ---       spi_write_8bit_registers
      00FFDB30H   PUBLIC    CODE     ---       spi_write_dat
      00012C69H   PUBLIC    XDATA    BYTE      ?spi_write_8bit_array?BYTE
      00012C73H   PUBLIC    XDATA    BYTE      ?spi_write_16bit_array?BYTE
      00012C3FH   PUBLIC    XDATA    BYTE      ?spi_write_8bit_registers?BYTE
      00012B98H   PUBLIC    XDATA    BYTE      ?spi_write_16bit_registers?BYTE
L251 LINKER/LOCATER V4.66.93.0                                                        06/12/2025  20:04:03  PAGE 74


      00012C7DH   PUBLIC    XDATA    BYTE      ?spi_read_8bit_array?BYTE
      00012C87H   PUBLIC    XDATA    BYTE      ?spi_read_16bit_array?BYTE
      00012C4AH   PUBLIC    XDATA    BYTE      ?spi_read_8bit_registers?BYTE
      00012BA4H   PUBLIC    XDATA    BYTE      ?spi_read_16bit_registers?BYTE
      00012B0AH   PUBLIC    XDATA    BYTE      ?spi_transfer_8bit?BYTE
      00012B18H   PUBLIC    XDATA    BYTE      ?spi_transfer_16bit?BYTE
      00012A24H   PUBLIC    XDATA    BYTE      ?spi_init?BYTE
      000000CFH   SFRSYM    DATA     BYTE      SPDAT
      000000D0H   SFRSYM    DATA     BYTE      PSW
      0000009DH   SFRSYM    DATA     BYTE      IRCBAND
      00000097H   SFRSYM    DATA     BYTE      AUXR2
      000000EFH   SFRSYM    DATA     BYTE      AUXINTIF
      000000FDH   SFRSYM    DATA     BYTE      S4CON
      000000ACH   SFRSYM    DATA     BYTE      S3CON
      0000009AH   SFRSYM    DATA     BYTE      S2CON
      0000009BH   SFRSYM    DATA     BYTE      S2BUF
      000000B7H   SFRSYM    DATA     BYTE      IPH
      000000CDH   SFRSYM    DATA     BYTE      SPSTAT
      000000DDH   SFRSYM    DATA     BYTE      T4T3M
      000000C1H   SFRSYM    DATA     BYTE      WDT_CONTR
      000000DFH   SFRSYM    DATA     BYTE      IP3
      000000F4H   SFRSYM    DATA     BYTE      USBCON
      000000B5H   SFRSYM    DATA     BYTE      IP2
      000000FFH   SFRSYM    DATA     BYTE      RSTCFG
      000000C7H   SFRSYM    DATA     BYTE      IAP_CONTR
      0000008EH   SFRSYM    DATA     BYTE      AUXR
      000000AFH   SFRSYM    DATA     BYTE      IE2
      00000088H   SFRSYM    DATA     BYTE      TCON
      00000089H   SFRSYM    DATA     BYTE      TMOD
      00000098H   SFRSYM    DATA     BYTE      SCON
      00000087H   SFRSYM    DATA     BYTE      PCON
      00000099H   SFRSYM    DATA     BYTE      SBUF
      000000BCH   SFRSYM    DATA     BYTE      ADC_CONTR
      000000D1H   SFRSYM    DATA     BYTE      PSW1
      000000E7H   SFRSYM    DATA     BYTE      CMPCR2
      000000E6H   SFRSYM    DATA     BYTE      CMPCR1
      0000009AH.1 SFRSYM    DATA     BIT       S2TI
      00000098H.1 SFRSYM    DATA     BIT       TI
      000000DEH   SFRSYM    DATA     BYTE      ADCCFG
      000000B8H   SFRSYM    DATA     BYTE      IP
      0000008FH   SFRSYM    DATA     BYTE      INTCLKO
      000000EEH   SFRSYM    DATA     BYTE      IP3H
      000000B6H   SFRSYM    DATA     BYTE      IP2H
      000000BFH   SFRSYM    DATA     BYTE      P_SW4
      000000A8H   SFRSYM    DATA     BYTE      IE
      000000BBH   SFRSYM    DATA     BYTE      P_SW3
      000000BAH   SFRSYM    DATA     BYTE      P_SW2
      000000A2H   SFRSYM    DATA     BYTE      P_SW1
      000000CEH   SFRSYM    DATA     BYTE      SPCTL
      000000F8H   SFRSYM    DATA     BYTE      P7
      000000E8H   SFRSYM    DATA     BYTE      P6
      000000C8H   SFRSYM    DATA     BYTE      P5
      000000C0H   SFRSYM    DATA     BYTE      P4
      000000ABH   SFRSYM    DATA     BYTE      WKTCH
      000000B0H   SFRSYM    DATA     BYTE      P3
      000000A0H   SFRSYM    DATA     BYTE      P2
      00000090H   SFRSYM    DATA     BYTE      P1
      00000080H   SFRSYM    DATA     BYTE      P0

      00FFDB30H   BLOCK     CODE     ---       LVL=0
      00012EB7H   SYMBOL    XDATA    INT       spi_n
      00012EB9H   SYMBOL    XDATA    BYTE      dat
      00FFDB30H   LINE      CODE     ---       #81
      00FFDB3AH   LINE      CODE     ---       #83
      00FFDB4CH   LINE      CODE     ---       #85
L251 LINKER/LOCATER V4.66.93.0                                                        06/12/2025  20:04:03  PAGE 75


      00FFDB4CH   LINE      CODE     ---       #86
      00FFDB4FH   LINE      CODE     ---       #87
      00FFDB55H   LINE      CODE     ---       #88
      00FFDB5AH   LINE      CODE     ---       #89
      00FFDB5CH   LINE      CODE     ---       #90
      00FFDB5CH   LINE      CODE     ---       #91
      00FFDB5EH   LINE      CODE     ---       #92
      00FFDB64H   LINE      CODE     ---       #93
      00FFDB67H   LINE      CODE     ---       #94
      00FFDB69H   LINE      CODE     ---       #95
      00FFDB69H   LINE      CODE     ---       #96
      00FFDB6CH   LINE      CODE     ---       #97
      00FFDB72H   LINE      CODE     ---       #98
      00FFDB76H   LINE      CODE     ---       #99
      00FFDB76H   LINE      CODE     ---       #100
      00FFDB76H   LINE      CODE     ---       #102
      00FFDB76H   LINE      CODE     ---       #103
      00FFDB76H   LINE      CODE     ---       #104
      ---         BLOCKEND  ---      ---       LVL=0

      00FFD3B5H   BLOCK     CODE     ---       LVL=0
      00012E7EH   SYMBOL    XDATA    INT       spi_n
      00012E80H   SYMBOL    XDATA    BYTE      dat
      00FFD3BFH   BLOCK     CODE     NEAR LAB  LVL=1
      00012E81H   SYMBOL    XDATA    BYTE      ret
      ---         BLOCKEND  ---      ---       LVL=1
      00FFD3B5H   LINE      CODE     ---       #107
      00FFD3BFH   LINE      CODE     ---       #108
      00FFD3BFH   LINE      CODE     ---       #109
      00FFD3C5H   LINE      CODE     ---       #110
      00FFD3D7H   LINE      CODE     ---       #112
      00FFD3D7H   LINE      CODE     ---       #113
      00FFD3DAH   LINE      CODE     ---       #114
      00FFD3E0H   LINE      CODE     ---       #115
      00FFD3E5H   LINE      CODE     ---       #116
      00FFD3EBH   LINE      CODE     ---       #117
      00FFD3EDH   LINE      CODE     ---       #118
      00FFD3EDH   LINE      CODE     ---       #119
      00FFD3EFH   LINE      CODE     ---       #120
      00FFD3F5H   LINE      CODE     ---       #121
      00FFD3F8H   LINE      CODE     ---       #122
      00FFD3FEH   LINE      CODE     ---       #123
      00FFD400H   LINE      CODE     ---       #124
      00FFD400H   LINE      CODE     ---       #125
      00FFD403H   LINE      CODE     ---       #126
      00FFD409H   LINE      CODE     ---       #127
      00FFD40DH   LINE      CODE     ---       #128
      00FFD413H   LINE      CODE     ---       #129
      00FFD413H   LINE      CODE     ---       #130
      00FFD413H   LINE      CODE     ---       #132
      00FFD413H   LINE      CODE     ---       #133
      00FFD413H   LINE      CODE     ---       #135
      00FFD417H   LINE      CODE     ---       #136
      ---         BLOCKEND  ---      ---       LVL=0

      00FF00A6H   BLOCK     CODE     ---       LVL=0
      00012EBAH   SYMBOL    XDATA    INT       spi_n
      00012EBCH   SYMBOL    XDATA    BYTE      dat
      00FF00A6H   LINE      CODE     ---       #147
      00FF00B0H   LINE      CODE     ---       #149
      00FF00BDH   LINE      CODE     ---       #150
      ---         BLOCKEND  ---      ---       LVL=0
      00012C69H   SYMBOL    XDATA    INT       spi_n
      00012C6BH   SYMBOL    XDATA    ---       dat
      00012C6FH   SYMBOL    XDATA    DWORD     len
L251 LINKER/LOCATER V4.66.93.0                                                        06/12/2025  20:04:03  PAGE 76



      00FFDF55H   BLOCK     CODE     ---       LVL=0
      00012E82H   SYMBOL    XDATA    INT       spi_n
      00012E84H   SYMBOL    XDATA    WORD      dat
      00FFDF55H   LINE      CODE     ---       #175
      00FFDF61H   LINE      CODE     ---       #177
      00FFDF77H   LINE      CODE     ---       #178
      00FFDF89H   LINE      CODE     ---       #179
      ---         BLOCKEND  ---      ---       LVL=0
      00012C73H   SYMBOL    XDATA    INT       spi_n
      00012C75H   SYMBOL    XDATA    ---       dat
      00012C79H   SYMBOL    XDATA    DWORD     len

      00FFE147H   BLOCK     CODE     ---       LVL=0
      00012E86H   SYMBOL    XDATA    INT       spi_n
      00012E88H   SYMBOL    XDATA    BYTE      register_name
      00012E89H   SYMBOL    XDATA    BYTE      dat
      00FFE147H   LINE      CODE     ---       #206
      00FFE157H   LINE      CODE     ---       #208
      00FFE164H   LINE      CODE     ---       #209
      00FFE171H   LINE      CODE     ---       #210
      ---         BLOCKEND  ---      ---       LVL=0

      00FFD64FH   BLOCK     CODE     ---       LVL=0
      00012C3FH   SYMBOL    XDATA    INT       spi_n
      00012C41H   SYMBOL    XDATA    BYTE      register_name
      00012C42H   SYMBOL    XDATA    ---       dat
      00012C46H   SYMBOL    XDATA    DWORD     len
      00FFD64FH   LINE      CODE     ---       #222
      00FFD663H   LINE      CODE     ---       #224
      00FFD670H   LINE      CODE     ---       #225
      00FFD672H   LINE      CODE     ---       #227
      00FFD691H   LINE      CODE     ---       #228
      00FFD6AAH   LINE      CODE     ---       #229
      ---         BLOCKEND  ---      ---       LVL=0
      00012DF2H   SYMBOL    XDATA    INT       spi_n
      00012DF4H   SYMBOL    XDATA    WORD      register_name
      00012DF6H   SYMBOL    XDATA    WORD      dat
      00012B98H   SYMBOL    XDATA    INT       spi_n
      00012B9AH   SYMBOL    XDATA    WORD      register_name
      00012B9CH   SYMBOL    XDATA    ---       dat
      00012ED8H   SYMBOL    XDATA    INT       spi_n
      00012C7DH   SYMBOL    XDATA    INT       spi_n
      00012C7FH   SYMBOL    XDATA    ---       dat
      00012C83H   SYMBOL    XDATA    DWORD     len
      00012E8AH   SYMBOL    XDATA    INT       spi_n
      00012E8CH   SYMBOL    XDATA    WORD      dat
      00012C87H   SYMBOL    XDATA    INT       spi_n
      00012C89H   SYMBOL    XDATA    ---       dat
      00012C8DH   SYMBOL    XDATA    DWORD     len
      00012EBDH   SYMBOL    XDATA    INT       spi_n
      00012EBFH   SYMBOL    XDATA    BYTE      register_name

      00FFD07CH   BLOCK     CODE     ---       LVL=0
      00012C4AH   SYMBOL    XDATA    INT       spi_n
      00012C4CH   SYMBOL    XDATA    BYTE      register_name
      00012C4DH   SYMBOL    XDATA    ---       dat
      00012C51H   SYMBOL    XDATA    DWORD     len
      00FFD07CH   LINE      CODE     ---       #350
      00FFD090H   LINE      CODE     ---       #352
      00FFD09DH   LINE      CODE     ---       #353
      00FFD09FH   LINE      CODE     ---       #355
      00FFD0CCH   LINE      CODE     ---       #356
      00FFD0E5H   LINE      CODE     ---       #357
      ---         BLOCKEND  ---      ---       LVL=0
L251 LINKER/LOCATER V4.66.93.0                                                        06/12/2025  20:04:03  PAGE 77


      00012DF8H   SYMBOL    XDATA    INT       spi_n
      00012DFAH   SYMBOL    XDATA    WORD      register_name
      00012DFCH   SYMBOL    XDATA    WORD      dat
      00012BA4H   SYMBOL    XDATA    INT       spi_n
      00012BA6H   SYMBOL    XDATA    WORD      register_name
      00012BA8H   SYMBOL    XDATA    ---       dat
      00012BACH   SYMBOL    XDATA    DWORD     len
      00012B0AH   SYMBOL    XDATA    INT       spi_n
      00012B0CH   SYMBOL    XDATA    ---       write_buffer
      00012B10H   SYMBOL    XDATA    ---       read_buffer
      00012B14H   SYMBOL    XDATA    DWORD     len
      00012B18H   SYMBOL    XDATA    INT       spi_n
      00012B1AH   SYMBOL    XDATA    ---       write_buffer
      00012B1EH   SYMBOL    XDATA    ---       read_buffer
      00012B22H   SYMBOL    XDATA    DWORD     len

      00FF5631H   BLOCK     CODE     ---       LVL=0
      00012A24H   SYMBOL    XDATA    INT       spi_n
      00012A26H   SYMBOL    XDATA    INT       mode
      00012A28H   SYMBOL    XDATA    DWORD     baud
      00012A2CH   SYMBOL    XDATA    INT       sck_pin
      00012A2EH   SYMBOL    XDATA    INT       mosi_pin
      00012A30H   SYMBOL    XDATA    INT       miso_pin
      00012A32H   SYMBOL    XDATA    INT       cs_pin
      00FF5647H   BLOCK     CODE     NEAR LAB  LVL=1
      00012A34H   SYMBOL    XDATA    DWORD     spi_psc
      ---         BLOCKEND  ---      ---       LVL=1
      00FF5631H   LINE      CODE     ---       #465
      00FF5647H   LINE      CODE     ---       #466
      00FF5647H   LINE      CODE     ---       #467
      00FF5653H   LINE      CODE     ---       #469
      00FF5653H   LINE      CODE     ---       #473
      00FF5653H   LINE      CODE     ---       #475
      00FF5669H   LINE      CODE     ---       #476
      00FF567FH   LINE      CODE     ---       #478
      00FF568BH   LINE      CODE     ---       #480
      00FF56A1H   LINE      CODE     ---       #481
      00FF56A1H   LINE      CODE     ---       #483
      00FF56ADH   LINE      CODE     ---       #485
      00FF56C2H   LINE      CODE     ---       #486
      00FF56C2H   LINE      CODE     ---       #489
      00FF56D2H   LINE      CODE     ---       #491
      00FF56E0H   LINE      CODE     ---       #492
      00FF56EEH   LINE      CODE     ---       #493
      00FF56FAH   LINE      CODE     ---       #495
      00FF5708H   LINE      CODE     ---       #496
      00FF5708H   LINE      CODE     ---       #497
      00FF5714H   LINE      CODE     ---       #499
      00FF5722H   LINE      CODE     ---       #500
      00FF5722H   LINE      CODE     ---       #504
      00FF572FH   LINE      CODE     ---       #506
      00FF5732H   LINE      CODE     ---       #508
      00FF5750H   LINE      CODE     ---       #510
      00FF5750H   LINE      CODE     ---       #511
      00FF5754H   LINE      CODE     ---       #512
      00FF5756H   LINE      CODE     ---       #514
      00FF5756H   LINE      CODE     ---       #515
      00FF5759H   LINE      CODE     ---       #516
      00FF575BH   LINE      CODE     ---       #518
      00FF575BH   LINE      CODE     ---       #519
      00FF575EH   LINE      CODE     ---       #520
      00FF5760H   LINE      CODE     ---       #522
      00FF5760H   LINE      CODE     ---       #523
      00FF5763H   LINE      CODE     ---       #524
      00FF5763H   LINE      CODE     ---       #525
L251 LINKER/LOCATER V4.66.93.0                                                        06/12/2025  20:04:03  PAGE 78


      00FF5763H   LINE      CODE     ---       #527
      00FF5766H   LINE      CODE     ---       #528
      00FF5769H   LINE      CODE     ---       #529
      00FF576CH   LINE      CODE     ---       #532
      00FF578DH   LINE      CODE     ---       #534
      00FF5790H   LINE      CODE     ---       #536
      00FF57A0H   LINE      CODE     ---       #538
      00FF57A3H   LINE      CODE     ---       #539
      00FF57A5H   LINE      CODE     ---       #540
      00FF57B5H   LINE      CODE     ---       #542
      00FF57B8H   LINE      CODE     ---       #543
      00FF57BAH   LINE      CODE     ---       #544
      00FF57CAH   LINE      CODE     ---       #546
      00FF57CEH   LINE      CODE     ---       #547
      00FF57D0H   LINE      CODE     ---       #550
      00FF57D3H   LINE      CODE     ---       #551
      00FF57D3H   LINE      CODE     ---       #554
      00FF57E7H   LINE      CODE     ---       #556
      00FF57E7H   LINE      CODE     ---       #557
      00FF57E9H   LINE      CODE     ---       #559
      00FF57E9H   LINE      CODE     ---       #560
      00FF57ECH   LINE      CODE     ---       #561
      00FF57EEH   LINE      CODE     ---       #563
      00FF57EEH   LINE      CODE     ---       #564
      00FF57F1H   LINE      CODE     ---       #565
      00FF57F3H   LINE      CODE     ---       #567
      00FF57F3H   LINE      CODE     ---       #568
      00FF57F6H   LINE      CODE     ---       #569
      00FF57F6H   LINE      CODE     ---       #570
      00FF57F6H   LINE      CODE     ---       #572
      00FF57F9H   LINE      CODE     ---       #573
      00FF57FCH   LINE      CODE     ---       #574
      00FF580BH   LINE      CODE     ---       #586
      00FF580EH   LINE      CODE     ---       #588
      00FF582CH   LINE      CODE     ---       #590
      00FF582CH   LINE      CODE     ---       #591
      00FF5830H   LINE      CODE     ---       #592
      00FF5832H   LINE      CODE     ---       #594
      00FF5832H   LINE      CODE     ---       #595
      00FF5835H   LINE      CODE     ---       #596
      00FF5837H   LINE      CODE     ---       #598
      00FF5837H   LINE      CODE     ---       #599
      00FF583AH   LINE      CODE     ---       #600
      00FF583CH   LINE      CODE     ---       #602
      00FF583CH   LINE      CODE     ---       #603
      00FF583FH   LINE      CODE     ---       #604
      00FF583FH   LINE      CODE     ---       #605
      00FF583FH   LINE      CODE     ---       #607
      00FF5842H   LINE      CODE     ---       #608
      00FF584FH   LINE      CODE     ---       #612
      00FF5870H   LINE      CODE     ---       #616
      00FF5880H   LINE      CODE     ---       #618
      00FF5890H   LINE      CODE     ---       #619
      00FF5892H   LINE      CODE     ---       #620
      00FF58A2H   LINE      CODE     ---       #622
      00FF58B2H   LINE      CODE     ---       #623
      00FF58B4H   LINE      CODE     ---       #624
      00FF58C4H   LINE      CODE     ---       #626
      00FF58D2H   LINE      CODE     ---       #627
      00FF58D4H   LINE      CODE     ---       #630
      00FF58E4H   LINE      CODE     ---       #631
      00FF58E4H   LINE      CODE     ---       #635
      00FF58FCH   LINE      CODE     ---       #637
      00FF58FCH   LINE      CODE     ---       #638
      00FF590AH   LINE      CODE     ---       #639
L251 LINKER/LOCATER V4.66.93.0                                                        06/12/2025  20:04:03  PAGE 79


      00FF590CH   LINE      CODE     ---       #641
      00FF590CH   LINE      CODE     ---       #642
      00FF591CH   LINE      CODE     ---       #643
      00FF591EH   LINE      CODE     ---       #645
      00FF591EH   LINE      CODE     ---       #646
      00FF592EH   LINE      CODE     ---       #647
      00FF5930H   LINE      CODE     ---       #649
      00FF5930H   LINE      CODE     ---       #650
      00FF5940H   LINE      CODE     ---       #651
      00FF5940H   LINE      CODE     ---       #652
      00FF5940H   LINE      CODE     ---       #654
      00FF5950H   LINE      CODE     ---       #655
      00FF5953H   LINE      CODE     ---       #656
      00FF5962H   LINE      CODE     ---       #667
      00FF5965H   LINE      CODE     ---       #669
      00FF5983H   LINE      CODE     ---       #671
      00FF5983H   LINE      CODE     ---       #672
      00FF5987H   LINE      CODE     ---       #673
      00FF5989H   LINE      CODE     ---       #675
      00FF5989H   LINE      CODE     ---       #676
      00FF598CH   LINE      CODE     ---       #677
      00FF598EH   LINE      CODE     ---       #679
      00FF598EH   LINE      CODE     ---       #680
      00FF5991H   LINE      CODE     ---       #681
      00FF5993H   LINE      CODE     ---       #683
      00FF5993H   LINE      CODE     ---       #684
      00FF5996H   LINE      CODE     ---       #685
      00FF5996H   LINE      CODE     ---       #686
      00FF5996H   LINE      CODE     ---       #688
      00FF5999H   LINE      CODE     ---       #689
      00FF59A6H   LINE      CODE     ---       #693
      00FF59C7H   LINE      CODE     ---       #695
      00FF59D7H   LINE      CODE     ---       #697
      00FF59E7H   LINE      CODE     ---       #698
      00FF59E9H   LINE      CODE     ---       #699
      00FF59F9H   LINE      CODE     ---       #701
      00FF5A09H   LINE      CODE     ---       #702
      00FF5A0BH   LINE      CODE     ---       #703
      00FF5A1BH   LINE      CODE     ---       #705
      00FF5A29H   LINE      CODE     ---       #706
      00FF5A2BH   LINE      CODE     ---       #709
      00FF5A3BH   LINE      CODE     ---       #710
      00FF5A3BH   LINE      CODE     ---       #714
      00FF5A53H   LINE      CODE     ---       #716
      00FF5A53H   LINE      CODE     ---       #717
      00FF5A61H   LINE      CODE     ---       #718
      00FF5A63H   LINE      CODE     ---       #720
      00FF5A63H   LINE      CODE     ---       #721
      00FF5A73H   LINE      CODE     ---       #722
      00FF5A75H   LINE      CODE     ---       #724
      00FF5A75H   LINE      CODE     ---       #725
      00FF5A85H   LINE      CODE     ---       #726
      00FF5A87H   LINE      CODE     ---       #728
      00FF5A87H   LINE      CODE     ---       #729
      00FF5A97H   LINE      CODE     ---       #730
      00FF5A97H   LINE      CODE     ---       #731
      00FF5A97H   LINE      CODE     ---       #733
      00FF5AA7H   LINE      CODE     ---       #734
      ---         BLOCKEND  ---      ---       LVL=0

      ---         MODULE    ---      ---       zf_driver_timer
      000000D0H   SFRSYM    DATA     BYTE      PSW
      0000009DH   SFRSYM    DATA     BYTE      IRCBAND
      00000097H   SFRSYM    DATA     BYTE      AUXR2
      000000EFH   SFRSYM    DATA     BYTE      AUXINTIF
L251 LINKER/LOCATER V4.66.93.0                                                        06/12/2025  20:04:03  PAGE 80


      000000FDH   SFRSYM    DATA     BYTE      S4CON
      000000ACH   SFRSYM    DATA     BYTE      S3CON
      0000009AH   SFRSYM    DATA     BYTE      S2CON
      000000B7H   SFRSYM    DATA     BYTE      IPH
      000000CDH   SFRSYM    DATA     BYTE      SPSTAT
      000000DDH   SFRSYM    DATA     BYTE      T4T3M
      000000C1H   SFRSYM    DATA     BYTE      WDT_CONTR
      000000DFH   SFRSYM    DATA     BYTE      IP3
      000000F4H   SFRSYM    DATA     BYTE      USBCON
      000000B5H   SFRSYM    DATA     BYTE      IP2
      000000FFH   SFRSYM    DATA     BYTE      RSTCFG
      000000C7H   SFRSYM    DATA     BYTE      IAP_CONTR
      0000008EH   SFRSYM    DATA     BYTE      AUXR
      000000AFH   SFRSYM    DATA     BYTE      IE2
      00000088H   SFRSYM    DATA     BYTE      TCON
      00000089H   SFRSYM    DATA     BYTE      TMOD
      00000098H   SFRSYM    DATA     BYTE      SCON
      00000087H   SFRSYM    DATA     BYTE      PCON
      000000BCH   SFRSYM    DATA     BYTE      ADC_CONTR
      000000D1H   SFRSYM    DATA     BYTE      PSW1
      000000E7H   SFRSYM    DATA     BYTE      CMPCR2
      000000E6H   SFRSYM    DATA     BYTE      CMPCR1
      000000DEH   SFRSYM    DATA     BYTE      ADCCFG
      000000B8H   SFRSYM    DATA     BYTE      IP
      0000008FH   SFRSYM    DATA     BYTE      INTCLKO
      000000EEH   SFRSYM    DATA     BYTE      IP3H
      000000B6H   SFRSYM    DATA     BYTE      IP2H
      000000BFH   SFRSYM    DATA     BYTE      P_SW4
      000000A8H   SFRSYM    DATA     BYTE      IE
      000000BBH   SFRSYM    DATA     BYTE      P_SW3
      000000BAH   SFRSYM    DATA     BYTE      P_SW2
      000000A2H   SFRSYM    DATA     BYTE      P_SW1
      000000CEH   SFRSYM    DATA     BYTE      SPCTL
      000000F8H   SFRSYM    DATA     BYTE      P7
      000000E8H   SFRSYM    DATA     BYTE      P6
      000000C8H   SFRSYM    DATA     BYTE      P5
      000000C0H   SFRSYM    DATA     BYTE      P4
      000000ABH   SFRSYM    DATA     BYTE      WKTCH
      000000B0H   SFRSYM    DATA     BYTE      P3
      000000A0H   SFRSYM    DATA     BYTE      P2
      00000090H   SFRSYM    DATA     BYTE      P1
      00000080H   SFRSYM    DATA     BYTE      P0
      00012BB0H   SYMBOL    XDATA    ---       timer_function_state
      00012E34H   SYMBOL    XDATA    INT       index
      00012E36H   SYMBOL    XDATA    INT       mode
      00012E38H   SYMBOL    XDATA    BYTE      return_state

      ---         MODULE    ---      ---       zf_driver_uart
      00FFC2D3H   PUBLIC    CODE     ---       uart_rx_start_buff
      00FFB145H   PUBLIC    CODE     ---       uart_write_buffer
      00FFD220H   PUBLIC    CODE     ---       uart_write_string
      00FF8A3CH   PUBLIC    CODE     ---       uart_init
      00FFD80BH   PUBLIC    CODE     ---       uart_rx_interrupt
      00FFE238H   PUBLIC    CODE     ---       uart_write_byte
      00FFAB74H   PUBLIC    CODE     ---       uart_dma_init
      00FFCA67H   PUBLIC    CODE     ---       uart_query_byte
      00012BC4H   PUBLIC    XDATA    ---       uart_rx_buff
      00012BC8H   PUBLIC    XDATA    BYTE      ?uart_init?BYTE
      000000D0H   SFRSYM    DATA     BYTE      PSW
      0000009DH   SFRSYM    DATA     BYTE      IRCBAND
      00000097H   SFRSYM    DATA     BYTE      AUXR2
      000000EFH   SFRSYM    DATA     BYTE      AUXINTIF
      000000FDH   SFRSYM    DATA     BYTE      S4CON
      000000ACH   SFRSYM    DATA     BYTE      S3CON
      0000009AH   SFRSYM    DATA     BYTE      S2CON
L251 LINKER/LOCATER V4.66.93.0                                                        06/12/2025  20:04:03  PAGE 81


      000000B7H   SFRSYM    DATA     BYTE      IPH
      000000CDH   SFRSYM    DATA     BYTE      SPSTAT
      000000DDH   SFRSYM    DATA     BYTE      T4T3M
      000000C1H   SFRSYM    DATA     BYTE      WDT_CONTR
      00000088H.6 SFRSYM    DATA     BIT       TR1
      000000D7H   SFRSYM    DATA     BYTE      T2L
      000000D6H   SFRSYM    DATA     BYTE      T2H
      000000DFH   SFRSYM    DATA     BYTE      IP3
      000000F4H   SFRSYM    DATA     BYTE      USBCON
      000000B5H   SFRSYM    DATA     BYTE      IP2
      000000FFH   SFRSYM    DATA     BYTE      RSTCFG
      000000C7H   SFRSYM    DATA     BYTE      IAP_CONTR
      0000008EH   SFRSYM    DATA     BYTE      AUXR
      000000AFH   SFRSYM    DATA     BYTE      IE2
      00000088H   SFRSYM    DATA     BYTE      TCON
      00000089H   SFRSYM    DATA     BYTE      TMOD
      00000098H   SFRSYM    DATA     BYTE      SCON
      00000087H   SFRSYM    DATA     BYTE      PCON
      000000BCH   SFRSYM    DATA     BYTE      ADC_CONTR
      000000D1H   SFRSYM    DATA     BYTE      PSW1
      000000E7H   SFRSYM    DATA     BYTE      CMPCR2
      000000E6H   SFRSYM    DATA     BYTE      CMPCR1
      000000DEH   SFRSYM    DATA     BYTE      ADCCFG
      000000B8H   SFRSYM    DATA     BYTE      IP
      0000008FH   SFRSYM    DATA     BYTE      INTCLKO
      000000EEH   SFRSYM    DATA     BYTE      IP3H
      000000B6H   SFRSYM    DATA     BYTE      IP2H
      000000BFH   SFRSYM    DATA     BYTE      P_SW4
      000000A8H   SFRSYM    DATA     BYTE      IE
      000000BBH   SFRSYM    DATA     BYTE      P_SW3
      000000BAH   SFRSYM    DATA     BYTE      P_SW2
      000000A2H   SFRSYM    DATA     BYTE      P_SW1
      000000CEH   SFRSYM    DATA     BYTE      SPCTL
      000000F8H   SFRSYM    DATA     BYTE      P7
      000000E8H   SFRSYM    DATA     BYTE      P6
      000000C8H   SFRSYM    DATA     BYTE      P5
      000000C0H   SFRSYM    DATA     BYTE      P4
      000000ABH   SFRSYM    DATA     BYTE      WKTCH
      000000B0H   SFRSYM    DATA     BYTE      P3
      000000A0H   SFRSYM    DATA     BYTE      P2
      00000090H   SFRSYM    DATA     BYTE      P1
      00000080H   SFRSYM    DATA     BYTE      P0
      00012BBCH   SYMBOL    XDATA    ---       uart_function_state
      00012E39H   SYMBOL    XDATA    INT       index
      00012E3BH   SYMBOL    XDATA    INT       mode
      00012E3DH   SYMBOL    XDATA    BYTE      return_state

      00FFB145H   BLOCK     CODE     ---       LVL=0
      00012D52H   SYMBOL    XDATA    INT       uart_n
      00012D54H   SYMBOL    XDATA    ---       buff
      00012D58H   SYMBOL    XDATA    WORD      len
      00FFB145H   LINE      CODE     ---       #108
      00FFB15BH   LINE      CODE     ---       #112
      00FFB179H   LINE      CODE     ---       #113
      00FFB184H   LINE      CODE     ---       #114
      00FFB1A8H   LINE      CODE     ---       #115
      00FFB1CBH   LINE      CODE     ---       #116
      00FFB1F7H   LINE      CODE     ---       #117
      00FFB221H   LINE      CODE     ---       #118
      00FFB240H   LINE      CODE     ---       #120
      00FFB25FH   LINE      CODE     ---       #122
      00FFB27DH   LINE      CODE     ---       #124
      ---         BLOCKEND  ---      ---       LVL=0

      00FFD220H   BLOCK     CODE     ---       LVL=0
L251 LINKER/LOCATER V4.66.93.0                                                        06/12/2025  20:04:03  PAGE 82


      000123B5H   SYMBOL    XDATA    INT       uart_n
      000123B7H   SYMBOL    XDATA    ---       str
      00FFD230H   BLOCK     CODE     NEAR LAB  LVL=1
      000123BBH   SYMBOL    XDATA    WORD      len
      000123BDH   SYMBOL    XDATA    ---       buff
      ---         BLOCKEND  ---      ---       LVL=1
      00FFD220H   LINE      CODE     ---       #132
      00FFD230H   LINE      CODE     ---       #133
      00FFD230H   LINE      CODE     ---       #136
      00FFD243H   LINE      CODE     ---       #140
      00FFD24FH   LINE      CODE     ---       #142
      00FFD26EH   LINE      CODE     ---       #143
      00FFD285H   LINE      CODE     ---       #144
      ---         BLOCKEND  ---      ---       LVL=0

      00FFE238H   BLOCK     CODE     ---       LVL=0
      00012EC0H   SYMBOL    XDATA    INT       uart_n
      00012EC2H   SYMBOL    XDATA    BYTE      dat
      00FFE238H   LINE      CODE     ---       #154
      00FFE242H   LINE      CODE     ---       #156
      00FFE257H   LINE      CODE     ---       #157
      ---         BLOCKEND  ---      ---       LVL=0

      00FFC2D3H   BLOCK     CODE     ---       LVL=0
      00012EDAH   SYMBOL    XDATA    INT       uart_n
      00FFC2D3H   LINE      CODE     ---       #165
      00FFC2D9H   LINE      CODE     ---       #167
      00FFC2F7H   LINE      CODE     ---       #168
      00FFC311H   LINE      CODE     ---       #169
      00FFC339H   LINE      CODE     ---       #170
      00FFC365H   LINE      CODE     ---       #171
      00FFC384H   LINE      CODE     ---       #172
      ---         BLOCKEND  ---      ---       LVL=0

      00FFD80BH   BLOCK     CODE     ---       LVL=0
      00012EC3H   SYMBOL    XDATA    INT       uart_n
      00012EC5H   SYMBOL    XDATA    BYTE      status
      00FFD80BH   LINE      CODE     ---       #183
      00FFD815H   LINE      CODE     ---       #185
      00FFD81BH   LINE      CODE     ---       #187
      00FFD83CH   LINE      CODE     ---       #188
      00FFD83EH   LINE      CODE     ---       #191
      00FFD85FH   LINE      CODE     ---       #192
      00FFD85FH   LINE      CODE     ---       #193
      ---         BLOCKEND  ---      ---       LVL=0
      00012EC6H   SYMBOL    XDATA    INT       uart_n
      00012EC8H   SYMBOL    XDATA    BYTE      dat

      00FFCA67H   BLOCK     CODE     ---       LVL=0
      00012DA8H   SYMBOL    XDATA    INT       uart_n
      00012DAAH   SYMBOL    XDATA    ---       dat
      00FFCA77H   BLOCK     CODE     NEAR LAB  LVL=1
      00012DAEH   SYMBOL    XDATA    BYTE      ret
      ---         BLOCKEND  ---      ---       LVL=1
      00FFCA67H   LINE      CODE     ---       #227
      00FFCA77H   LINE      CODE     ---       #228
      00FFCA77H   LINE      CODE     ---       #229
      00FFCA7CH   LINE      CODE     ---       #232
      00FFCA9AH   LINE      CODE     ---       #234
      00FFCABAH   LINE      CODE     ---       #236
      00FFCAC0H   LINE      CODE     ---       #238
      00FFCAE1H   LINE      CODE     ---       #239
      00FFCAE3H   LINE      CODE     ---       #242
      00FFCAE8H   LINE      CODE     ---       #243
      00FFCAE8H   LINE      CODE     ---       #246
L251 LINKER/LOCATER V4.66.93.0                                                        06/12/2025  20:04:03  PAGE 83


      00FFCAF1H   LINE      CODE     ---       #248
      00FFCAF5H   LINE      CODE     ---       #249
      ---         BLOCKEND  ---      ---       LVL=0

      00FFAB74H   BLOCK     CODE     ---       LVL=0
      00012EDCH   SYMBOL    XDATA    INT       uart_n
      00FFAB74H   LINE      CODE     ---       #257
      00FFAB7AH   LINE      CODE     ---       #259
      00FFAB98H   LINE      CODE     ---       #260
      00FFABB6H   LINE      CODE     ---       #261
      00FFABD4H   LINE      CODE     ---       #263
      00FFABF2H   LINE      CODE     ---       #264
      00FFAC10H   LINE      CODE     ---       #265
      00FFAC2EH   LINE      CODE     ---       #267
      00FFAC4CH   LINE      CODE     ---       #268
      00FFAC66H   LINE      CODE     ---       #269
      00FFAC8EH   LINE      CODE     ---       #270
      00FFACBAH   LINE      CODE     ---       #271
      00FFACD9H   LINE      CODE     ---       #272
      00FFACF8H   LINE      CODE     ---       #274
      ---         BLOCKEND  ---      ---       LVL=0

      00FF8A3CH   BLOCK     CODE     ---       LVL=0
      00012BC8H   SYMBOL    XDATA    INT       uart_n
      00012BCAH   SYMBOL    XDATA    DWORD     baud
      00012BCEH   SYMBOL    XDATA    INT       tx_pin
      00012BD0H   SYMBOL    XDATA    INT       rx_pin
      00FF8A52H   BLOCK     CODE     NEAR LAB  LVL=1
      00012BD2H   SYMBOL    XDATA    WORD      brt
      ---         BLOCKEND  ---      ---       LVL=1
      00FF8A3CH   LINE      CODE     ---       #286
      00FF8A52H   LINE      CODE     ---       #287
      00FF8A52H   LINE      CODE     ---       #311
      00FF8A68H   LINE      CODE     ---       #312
      00FF8A7CH   LINE      CODE     ---       #314
      00FF8AB3H   LINE      CODE     ---       #316
      00FF8AD7H   LINE      CODE     ---       #318
      00FF8AD7H   LINE      CODE     ---       #332
      00FF8ADAH   LINE      CODE     ---       #333
      00FF8AE2H   LINE      CODE     ---       #334
      00FF8AEEH   LINE      CODE     ---       #335
      00FF8AF1H   LINE      CODE     ---       #336
      00FF8AF3H   LINE      CODE     ---       #339
      00FF8AF6H   LINE      CODE     ---       #341
      00FF8B0EH   LINE      CODE     ---       #343
      00FF8B12H   LINE      CODE     ---       #344
      00FF8B15H   LINE      CODE     ---       #345
      00FF8B2DH   LINE      CODE     ---       #347
      00FF8B30H   LINE      CODE     ---       #348
      00FF8B33H   LINE      CODE     ---       #349
      00FF8B4BH   LINE      CODE     ---       #351
      00FF8B4EH   LINE      CODE     ---       #352
      00FF8B51H   LINE      CODE     ---       #353
      00FF8B6FH   LINE      CODE     ---       #355
      00FF8B72H   LINE      CODE     ---       #356
      00FF8B72H   LINE      CODE     ---       #359
      00FF8B75H   LINE      CODE     ---       #362
      00FF8B75H   LINE      CODE     ---       #366
      00FF8B78H   LINE      CODE     ---       #367
      00FF8B80H   LINE      CODE     ---       #368
      00FF8B8CH   LINE      CODE     ---       #369
      00FF8B8FH   LINE      CODE     ---       #372
      00FF8B92H   LINE      CODE     ---       #374
      00FF8BAAH   LINE      CODE     ---       #376
      00FF8BAEH   LINE      CODE     ---       #377
L251 LINKER/LOCATER V4.66.93.0                                                        06/12/2025  20:04:03  PAGE 84


      00FF8BB1H   LINE      CODE     ---       #378
      00FF8BCFH   LINE      CODE     ---       #380
      00FF8BD2H   LINE      CODE     ---       #381
      00FF8BD2H   LINE      CODE     ---       #385
      00FF8BD5H   LINE      CODE     ---       #388
      00FF8BD5H   LINE      CODE     ---       #392
      00FF8BD8H   LINE      CODE     ---       #393
      00FF8BE0H   LINE      CODE     ---       #394
      00FF8BECH   LINE      CODE     ---       #395
      00FF8BEFH   LINE      CODE     ---       #405
      00FF8BF2H   LINE      CODE     ---       #407
      00FF8C0AH   LINE      CODE     ---       #409
      00FF8C0EH   LINE      CODE     ---       #410
      00FF8C10H   LINE      CODE     ---       #411
      00FF8C28H   LINE      CODE     ---       #413
      00FF8C2BH   LINE      CODE     ---       #414
      00FF8C2BH   LINE      CODE     ---       #418
      00FF8C2DH   LINE      CODE     ---       #421
      00FF8C2DH   LINE      CODE     ---       #425
      00FF8C30H   LINE      CODE     ---       #426
      00FF8C38H   LINE      CODE     ---       #427
      00FF8C44H   LINE      CODE     ---       #428
      00FF8C47H   LINE      CODE     ---       #438
      00FF8C4AH   LINE      CODE     ---       #440
      00FF8C62H   LINE      CODE     ---       #442
      00FF8C66H   LINE      CODE     ---       #443
      00FF8C68H   LINE      CODE     ---       #444
      00FF8C80H   LINE      CODE     ---       #448
      00FF8C83H   LINE      CODE     ---       #449
      00FF8C83H   LINE      CODE     ---       #453
      00FF8C83H   LINE      CODE     ---       #456
      00FF8C83H   LINE      CODE     ---       #459
      00FF8C8CH   LINE      CODE     ---       #461
      ---         BLOCKEND  ---      ---       LVL=0

      ---         MODULE    ---      ---       zf_device_type
      00FFC93BH   PUBLIC    CODE     ---       set_wireless_type
      00012EDEH   PUBLIC    XDATA    INT       wireless_type
      000000D0H   SFRSYM    DATA     BYTE      PSW
      0000009DH   SFRSYM    DATA     BYTE      IRCBAND
      00000097H   SFRSYM    DATA     BYTE      AUXR2
      000000EFH   SFRSYM    DATA     BYTE      AUXINTIF
      000000FDH   SFRSYM    DATA     BYTE      S4CON
      000000ACH   SFRSYM    DATA     BYTE      S3CON
      0000009AH   SFRSYM    DATA     BYTE      S2CON
      000000B7H   SFRSYM    DATA     BYTE      IPH
      000000CDH   SFRSYM    DATA     BYTE      SPSTAT
      000000DDH   SFRSYM    DATA     BYTE      T4T3M
      000000C1H   SFRSYM    DATA     BYTE      WDT_CONTR
      000000DFH   SFRSYM    DATA     BYTE      IP3
      000000F4H   SFRSYM    DATA     BYTE      USBCON
      000000B5H   SFRSYM    DATA     BYTE      IP2
      000000FFH   SFRSYM    DATA     BYTE      RSTCFG
      000000C7H   SFRSYM    DATA     BYTE      IAP_CONTR
      0000008EH   SFRSYM    DATA     BYTE      AUXR
      000000AFH   SFRSYM    DATA     BYTE      IE2
      00000088H   SFRSYM    DATA     BYTE      TCON
      00000089H   SFRSYM    DATA     BYTE      TMOD
      00000098H   SFRSYM    DATA     BYTE      SCON
      00000087H   SFRSYM    DATA     BYTE      PCON
      000000BCH   SFRSYM    DATA     BYTE      ADC_CONTR
      000000D1H   SFRSYM    DATA     BYTE      PSW1
      000000E7H   SFRSYM    DATA     BYTE      CMPCR2
      000000E6H   SFRSYM    DATA     BYTE      CMPCR1
      000000DEH   SFRSYM    DATA     BYTE      ADCCFG
L251 LINKER/LOCATER V4.66.93.0                                                        06/12/2025  20:04:03  PAGE 85


      000000B8H   SFRSYM    DATA     BYTE      IP
      0000008FH   SFRSYM    DATA     BYTE      INTCLKO
      000000EEH   SFRSYM    DATA     BYTE      IP3H
      000000B6H   SFRSYM    DATA     BYTE      IP2H
      000000BFH   SFRSYM    DATA     BYTE      P_SW4
      000000A8H   SFRSYM    DATA     BYTE      IE
      000000BBH   SFRSYM    DATA     BYTE      P_SW3
      000000BAH   SFRSYM    DATA     BYTE      P_SW2
      000000A2H   SFRSYM    DATA     BYTE      P_SW1
      000000CEH   SFRSYM    DATA     BYTE      SPCTL
      000000F8H   SFRSYM    DATA     BYTE      P7
      000000E8H   SFRSYM    DATA     BYTE      P6
      000000C8H   SFRSYM    DATA     BYTE      P5
      000000C0H   SFRSYM    DATA     BYTE      P4
      000000ABH   SFRSYM    DATA     BYTE      WKTCH
      000000B0H   SFRSYM    DATA     BYTE      P3
      000000A0H   SFRSYM    DATA     BYTE      P2
      00000090H   SFRSYM    DATA     BYTE      P1
      00000080H   SFRSYM    DATA     BYTE      P0

      00FFC93BH   BLOCK     CODE     ---       LVL=0
      00012D5AH   SYMBOL    XDATA    INT       type_set
      00012D5CH   SYMBOL    XDATA    INT       uartx
      00012D5EH   SYMBOL    XDATA    ---       uart_callback
      00FFC93BH   LINE      CODE     ---       #47
      00FFC951H   LINE      CODE     ---       #49
      00FFC95DH   LINE      CODE     ---       #51
      00FFC967H   LINE      CODE     ---       #53
      00FFC977H   LINE      CODE     ---       #54
      00FFC979H   LINE      CODE     ---       #55
      00FFC985H   LINE      CODE     ---       #57
      00FFC995H   LINE      CODE     ---       #58
      00FFC997H   LINE      CODE     ---       #59
      00FFC9A3H   LINE      CODE     ---       #61
      00FFC9B3H   LINE      CODE     ---       #62
      00FFC9B5H   LINE      CODE     ---       #63
      00FFC9C1H   LINE      CODE     ---       #65
      00FFC9D1H   LINE      CODE     ---       #66
      ---         BLOCKEND  ---      ---       LVL=0

      ---         MODULE    ---      ---       zf_device_ips200
      00FFCF29H   PUBLIC    CODE     ---       ips200_show_string
      00FFBFF5H   PUBLIC    CODE     ---       ips200_show_char
      00FF0066H   PUBLIC    CODE     ---       ips200_set_color
      00FFB5EAH   PUBLIC    CODE     ---       ips200_show_int16
      00FFE28BH   PUBLIC    CODE     ---       ips200_set_dir
      00FFCF9EH   PUBLIC    CODE     ---       ips200_clear
      00FFC9D2H   PUBLIC    CODE     ---       ips200_show_uint8
      00FF9358H   PUBLIC    CODE     ---       ips200_init
      00012C91H   PUBLIC    XDATA    WORD      ips200_pencolor
      00012C93H   PUBLIC    XDATA    WORD      ips200_bgcolor
      00012C95H   PUBLIC    XDATA    INT       ips200_display_dir
      00012C97H   PUBLIC    XDATA    WORD      ips200_x_max
      00012C99H   PUBLIC    XDATA    WORD      ips200_y_max
      00012774H   PUBLIC    XDATA    BYTE      ?ips200_show_float?BYTE
      000000D0H   SFRSYM    DATA     BYTE      PSW
      0000009DH   SFRSYM    DATA     BYTE      IRCBAND
      00000097H   SFRSYM    DATA     BYTE      AUXR2
      000000EFH   SFRSYM    DATA     BYTE      AUXINTIF
      000000FDH   SFRSYM    DATA     BYTE      S4CON
      000000ACH   SFRSYM    DATA     BYTE      S3CON
      0000009AH   SFRSYM    DATA     BYTE      S2CON
      000000B7H   SFRSYM    DATA     BYTE      IPH
      000000CDH   SFRSYM    DATA     BYTE      SPSTAT
      000000DDH   SFRSYM    DATA     BYTE      T4T3M
L251 LINKER/LOCATER V4.66.93.0                                                        06/12/2025  20:04:03  PAGE 86


      000000C1H   SFRSYM    DATA     BYTE      WDT_CONTR
      000000DFH   SFRSYM    DATA     BYTE      IP3
      000000F4H   SFRSYM    DATA     BYTE      USBCON
      000000B5H   SFRSYM    DATA     BYTE      IP2
      000000FFH   SFRSYM    DATA     BYTE      RSTCFG
      000000C7H   SFRSYM    DATA     BYTE      IAP_CONTR
      0000008EH   SFRSYM    DATA     BYTE      AUXR
      000000AFH   SFRSYM    DATA     BYTE      IE2
      00000088H   SFRSYM    DATA     BYTE      TCON
      00000089H   SFRSYM    DATA     BYTE      TMOD
      00000098H   SFRSYM    DATA     BYTE      SCON
      000000A0H.2 SFRSYM    DATA     BIT       P22
      000000A0H.1 SFRSYM    DATA     BIT       P21
      000000A0H.0 SFRSYM    DATA     BIT       P20
      00000087H   SFRSYM    DATA     BYTE      PCON
      000000BCH   SFRSYM    DATA     BYTE      ADC_CONTR
      000000D1H   SFRSYM    DATA     BYTE      PSW1
      000000E7H   SFRSYM    DATA     BYTE      CMPCR2
      000000E6H   SFRSYM    DATA     BYTE      CMPCR1
      000000DEH   SFRSYM    DATA     BYTE      ADCCFG
      000000B8H   SFRSYM    DATA     BYTE      IP
      0000008FH   SFRSYM    DATA     BYTE      INTCLKO
      000000EEH   SFRSYM    DATA     BYTE      IP3H
      000000B6H   SFRSYM    DATA     BYTE      IP2H
      000000BFH   SFRSYM    DATA     BYTE      P_SW4
      000000A8H   SFRSYM    DATA     BYTE      IE
      000000BBH   SFRSYM    DATA     BYTE      P_SW3
      000000BAH   SFRSYM    DATA     BYTE      P_SW2
      000000A2H   SFRSYM    DATA     BYTE      P_SW1
      000000CEH   SFRSYM    DATA     BYTE      SPCTL
      000000F8H   SFRSYM    DATA     BYTE      P7
      000000E8H   SFRSYM    DATA     BYTE      P6
      000000C8H   SFRSYM    DATA     BYTE      P5
      000000C0H   SFRSYM    DATA     BYTE      P4
      000000ABH   SFRSYM    DATA     BYTE      WKTCH
      000000B0H   SFRSYM    DATA     BYTE      P3
      000000A0H   SFRSYM    DATA     BYTE      P2
      00000090H   SFRSYM    DATA     BYTE      P1
      00000080H   SFRSYM    DATA     BYTE      P0
      00FF0026H   SYMBOL    CODE     ---       ips200_write_index
      00FFD860H   SYMBOL    CODE     ---       ips200_set_region

      00FF0026H   BLOCK     CODE     ---       LVL=0
      00012EEFH   SYMBOL    XDATA    BYTE      dat
      00FF0026H   LINE      CODE     ---       #66
      00FF002AH   LINE      CODE     ---       #68
      00FF002CH   LINE      CODE     ---       #69
      00FF002EH   LINE      CODE     ---       #70
      00FF0030H   LINE      CODE     ---       #71
      00FF0039H   LINE      CODE     ---       #72
      00FF003BH   LINE      CODE     ---       #73
      00FF003DH   LINE      CODE     ---       #74
      00FF003FH   LINE      CODE     ---       #75
      ---         BLOCKEND  ---      ---       LVL=0

      00FFD860H   BLOCK     CODE     ---       LVL=0
      00012D62H   SYMBOL    XDATA    WORD      x1
      00012D64H   SYMBOL    XDATA    WORD      y1
      00012D66H   SYMBOL    XDATA    WORD      x2
      00012D68H   SYMBOL    XDATA    WORD      y2
      00FFD860H   LINE      CODE     ---       #86
      00FFD878H   LINE      CODE     ---       #94
      00FFD87DH   LINE      CODE     ---       #95
      00FFD888H   LINE      CODE     ---       #96
      00FFD893H   LINE      CODE     ---       #97
L251 LINKER/LOCATER V4.66.93.0                                                        06/12/2025  20:04:03  PAGE 87


      00FFD898H   LINE      CODE     ---       #98
      00FFD8A3H   LINE      CODE     ---       #99
      00FFD8AEH   LINE      CODE     ---       #100
      00FFD8B3H   LINE      CODE     ---       #102
      ---         BLOCKEND  ---      ---       LVL=0

      00FFCF9EH   BLOCK     CODE     ---       LVL=0
      00012DFEH   SYMBOL    XDATA    WORD      color
      00FFCFA4H   BLOCK     CODE     NEAR LAB  LVL=1
      00012E00H   SYMBOL    XDATA    WORD      i
      00012E02H   SYMBOL    XDATA    WORD      j
      ---         BLOCKEND  ---      ---       LVL=1
      00FFCF9EH   LINE      CODE     ---       #110
      00FFCFA4H   LINE      CODE     ---       #111
      00FFCFA4H   LINE      CODE     ---       #113
      00FFCFBBH   LINE      CODE     ---       #115
      00FFCFC5H   LINE      CODE     ---       #117
      00FFCFCFH   LINE      CODE     ---       #119
      00FFCFDAH   LINE      CODE     ---       #120
      00FFCFF5H   LINE      CODE     ---       #121
      00FFD010H   LINE      CODE     ---       #123
      ---         BLOCKEND  ---      ---       LVL=0

      00FFE28BH   BLOCK     CODE     ---       LVL=0
      00012EE0H   SYMBOL    XDATA    INT       dir
      00FFE28BH   LINE      CODE     ---       #131
      00FFE291H   LINE      CODE     ---       #133
      00FFE29DH   LINE      CODE     ---       #144
      ---         BLOCKEND  ---      ---       LVL=0

      00FF0066H   BLOCK     CODE     ---       LVL=0
      00012E8EH   SYMBOL    XDATA    WORD      pen
      00012E90H   SYMBOL    XDATA    WORD      bgcolor
      00FF0066H   LINE      CODE     ---       #153
      00FF0072H   LINE      CODE     ---       #155
      00FF007EH   LINE      CODE     ---       #156
      00FF008AH   LINE      CODE     ---       #157
      ---         BLOCKEND  ---      ---       LVL=0
      00012E04H   SYMBOL    XDATA    WORD      x
      00012E06H   SYMBOL    XDATA    WORD      y
      00012E08H   SYMBOL    XDATA    WORD      color

      00FFBFF5H   BLOCK     CODE     ---       LVL=0
      00012D6AH   SYMBOL    XDATA    WORD      x
      00012D6CH   SYMBOL    XDATA    WORD      y
      00012D6EH   SYMBOL    XDATA    CHAR      dat
      00FFC005H   BLOCK     CODE     NEAR LAB  LVL=1
      00012D6FH   SYMBOL    XDATA    BYTE      i
      00012D70H   SYMBOL    XDATA    BYTE      j
      00012D71H   SYMBOL    XDATA    BYTE      temp
      ---         BLOCKEND  ---      ---       LVL=1
      00FFBFF5H   LINE      CODE     ---       #184
      00FFC005H   LINE      CODE     ---       #185
      00FFC005H   LINE      CODE     ---       #192
      00FFC00DH   LINE      CODE     ---       #194
      00FFC03CH   LINE      CODE     ---       #195
      00FFC062H   LINE      CODE     ---       #196
      00FFC069H   LINE      CODE     ---       #198
      00FFC070H   LINE      CODE     ---       #199
      00FFC07DH   LINE      CODE     ---       #201
      00FFC088H   LINE      CODE     ---       #202
      00FFC08FH   LINE      CODE     ---       #203
      00FFC09EH   LINE      CODE     ---       #204
      00FFC0B0H   LINE      CODE     ---       #205
      ---         BLOCKEND  ---      ---       LVL=0
L251 LINKER/LOCATER V4.66.93.0                                                        06/12/2025  20:04:03  PAGE 88



      00FFCF29H   BLOCK     CODE     ---       LVL=0
      00012C9BH   SYMBOL    XDATA    WORD      x
      00012C9DH   SYMBOL    XDATA    WORD      y
      00012C9FH   SYMBOL    XDATA    ---       dat
      00FFCF3FH   BLOCK     CODE     NEAR LAB  LVL=1
      00012CA3H   SYMBOL    XDATA    WORD      j
      ---         BLOCKEND  ---      ---       LVL=1
      00FFCF29H   LINE      CODE     ---       #215
      00FFCF3FH   LINE      CODE     ---       #216
      00FFCF3FH   LINE      CODE     ---       #220
      00FFCF47H   LINE      CODE     ---       #221
      00FFCF49H   LINE      CODE     ---       #223
      00FFCF7BH   LINE      CODE     ---       #224
      00FFCF86H   LINE      CODE     ---       #225
      00FFCF9DH   LINE      CODE     ---       #226
      ---         BLOCKEND  ---      ---       LVL=0
      00012CCCH   SYMBOL    XDATA    WORD      x
      00012CCEH   SYMBOL    XDATA    WORD      y
      00012CD0H   SYMBOL    XDATA    CHAR      dat
      00012CD1H   SYMBOL    XDATA    ---       a
      00012CD4H   SYMBOL    XDATA    BYTE      i

      00FFC9D2H   BLOCK     CODE     ---       LVL=0
      00012CD5H   SYMBOL    XDATA    WORD      x
      00012CD7H   SYMBOL    XDATA    WORD      y
      00012CD9H   SYMBOL    XDATA    BYTE      dat
      00FFC9E2H   BLOCK     CODE     NEAR LAB  LVL=1
      00012CDAH   SYMBOL    XDATA    ---       a
      00012CDDH   SYMBOL    XDATA    BYTE      i
      ---         BLOCKEND  ---      ---       LVL=1
      00FFC9D2H   LINE      CODE     ---       #270
      00FFC9E2H   LINE      CODE     ---       #271
      00FFC9E2H   LINE      CODE     ---       #278
      00FFC9F2H   LINE      CODE     ---       #279
      00FFCA0BH   LINE      CODE     ---       #280
      00FFCA1EH   LINE      CODE     ---       #281
      00FFCA23H   LINE      CODE     ---       #282
      00FFCA25H   LINE      CODE     ---       #284
      00FFCA57H   LINE      CODE     ---       #285
      00FFCA5DH   LINE      CODE     ---       #286
      00FFCA66H   LINE      CODE     ---       #288
      ---         BLOCKEND  ---      ---       LVL=0

      00FFB5EAH   BLOCK     CODE     ---       LVL=0
      00012BD4H   SYMBOL    XDATA    WORD      x
      00012BD6H   SYMBOL    XDATA    WORD      y
      00012BD8H   SYMBOL    XDATA    INT       dat
      00FFB5FCH   BLOCK     CODE     NEAR LAB  LVL=1
      00012BDAH   SYMBOL    XDATA    ---       a
      00012BDFH   SYMBOL    XDATA    BYTE      i
      ---         BLOCKEND  ---      ---       LVL=1
      00FFB5EAH   LINE      CODE     ---       #298
      00FFB5FCH   LINE      CODE     ---       #299
      00FFB5FCH   LINE      CODE     ---       #306
      00FFB608H   LINE      CODE     ---       #308
      00FFB619H   LINE      CODE     ---       #309
      00FFB62BH   LINE      CODE     ---       #310
      00FFB62DH   LINE      CODE     ---       #311
      00FFB63EH   LINE      CODE     ---       #313
      00FFB651H   LINE      CODE     ---       #314
      00FFB66BH   LINE      CODE     ---       #315
      00FFB685H   LINE      CODE     ---       #316
      00FFB69FH   LINE      CODE     ---       #317
      00FFB6B2H   LINE      CODE     ---       #319
L251 LINKER/LOCATER V4.66.93.0                                                        06/12/2025  20:04:03  PAGE 89


      00FFB6B7H   LINE      CODE     ---       #320
      00FFB6B9H   LINE      CODE     ---       #322
      00FFB6EFH   LINE      CODE     ---       #323
      00FFB6F5H   LINE      CODE     ---       #324
      00FFB6FEH   LINE      CODE     ---       #325
      ---         BLOCKEND  ---      ---       LVL=0
      00012BE0H   SYMBOL    XDATA    WORD      x
      00012BE2H   SYMBOL    XDATA    WORD      y
      00012BE4H   SYMBOL    XDATA    WORD      dat
      00012BE6H   SYMBOL    XDATA    ---       a
      00012BEBH   SYMBOL    XDATA    BYTE      i
      00012774H   SYMBOL    XDATA    WORD      x
      00012776H   SYMBOL    XDATA    WORD      y
      00012778H   SYMBOL    XDATA    FLOAT     dat
      0001277CH   SYMBOL    XDATA    BYTE      num
      0001277DH   SYMBOL    XDATA    BYTE      pointnum
      0001277EH   SYMBOL    XDATA    BYTE      length
      0001277FH   SYMBOL    XDATA    ---       buff
      000127A1H   SYMBOL    XDATA    CHAR      start
      000127A2H   SYMBOL    XDATA    CHAR      end
      000127A3H   SYMBOL    XDATA    CHAR      point

      00FF9358H   BLOCK     CODE     ---       LVL=0
      00FF9358H   LINE      CODE     ---       #414
      00FF9358H   LINE      CODE     ---       #421
      00FF938FH   LINE      CODE     ---       #429
      00FF9398H   LINE      CODE     ---       #430
      00FF93A7H   LINE      CODE     ---       #432
      00FF93A9H   LINE      CODE     ---       #433
      00FF93B0H   LINE      CODE     ---       #435
      00FF93B2H   LINE      CODE     ---       #436
      00FF93B9H   LINE      CODE     ---       #438
      00FF93BEH   LINE      CODE     ---       #439
      00FF93C5H   LINE      CODE     ---       #440
      00FF93D7H   LINE      CODE     ---       #441
      00FF93ECH   LINE      CODE     ---       #442
      00FF9401H   LINE      CODE     ---       #443
      00FF9408H   LINE      CODE     ---       #445
      00FF940DH   LINE      CODE     ---       #446
      00FF9414H   LINE      CODE     ---       #448
      00FF9419H   LINE      CODE     ---       #449
      00FF9420H   LINE      CODE     ---       #450
      00FF9427H   LINE      CODE     ---       #451
      00FF942DH   LINE      CODE     ---       #452
      00FF9434H   LINE      CODE     ---       #453
      00FF943BH   LINE      CODE     ---       #455
      00FF9440H   LINE      CODE     ---       #456
      00FF9447H   LINE      CODE     ---       #458
      00FF944CH   LINE      CODE     ---       #459
      00FF9453H   LINE      CODE     ---       #461
      00FF9458H   LINE      CODE     ---       #462
      00FF945FH   LINE      CODE     ---       #464
      00FF9464H   LINE      CODE     ---       #465
      00FF946BH   LINE      CODE     ---       #467
      00FF9470H   LINE      CODE     ---       #468
      00FF9477H   LINE      CODE     ---       #470
      00FF947CH   LINE      CODE     ---       #471
      00FF9483H   LINE      CODE     ---       #473
      00FF9488H   LINE      CODE     ---       #474
      00FF948FH   LINE      CODE     ---       #476
      00FF9494H   LINE      CODE     ---       #477
      00FF949BH   LINE      CODE     ---       #478
      00FF94A2H   LINE      CODE     ---       #480
      00FF94A7H   LINE      CODE     ---       #481
      00FF94AEH   LINE      CODE     ---       #482
L251 LINKER/LOCATER V4.66.93.0                                                        06/12/2025  20:04:03  PAGE 90


      00FF94B5H   LINE      CODE     ---       #483
      00FF94BCH   LINE      CODE     ---       #484
      00FF94C3H   LINE      CODE     ---       #485
      00FF94CAH   LINE      CODE     ---       #486
      00FF94D1H   LINE      CODE     ---       #487
      00FF94D8H   LINE      CODE     ---       #488
      00FF94DFH   LINE      CODE     ---       #489
      00FF94E6H   LINE      CODE     ---       #490
      00FF94EDH   LINE      CODE     ---       #491
      00FF94F4H   LINE      CODE     ---       #492
      00FF94FBH   LINE      CODE     ---       #493
      00FF9502H   LINE      CODE     ---       #494
      00FF9509H   LINE      CODE     ---       #496
      00FF950EH   LINE      CODE     ---       #497
      00FF9515H   LINE      CODE     ---       #498
      00FF951CH   LINE      CODE     ---       #499
      00FF9523H   LINE      CODE     ---       #500
      00FF952AH   LINE      CODE     ---       #501
      00FF9531H   LINE      CODE     ---       #502
      00FF9538H   LINE      CODE     ---       #503
      00FF953FH   LINE      CODE     ---       #504
      00FF9546H   LINE      CODE     ---       #505
      00FF954DH   LINE      CODE     ---       #506
      00FF9554H   LINE      CODE     ---       #507
      00FF955BH   LINE      CODE     ---       #508
      00FF9562H   LINE      CODE     ---       #509
      00FF9569H   LINE      CODE     ---       #510
      00FF9570H   LINE      CODE     ---       #512
      00FF9575H   LINE      CODE     ---       #514
      00FF957AH   LINE      CODE     ---       #515
      00FF9581H   LINE      CODE     ---       #517
      00FF9586H   LINE      CODE     ---       #519
      00FF958FH   LINE      CODE     ---       #520
      ---         BLOCKEND  ---      ---       LVL=0

      ---         MODULE    ---      ---       zf_device_ble6a20
      00FFD418H   PUBLIC    CODE     ---       ble6a20_read_buffer
      00FFBAEDH   PUBLIC    CODE     ---       ble6a20_send_buffer
      00FFE1EDH   PUBLIC    CODE     ---       ble6a20_callback
      00FFCDA2H   PUBLIC    CODE     ---       ble6a20_init
      000000D0H   SFRSYM    DATA     BYTE      PSW
      0000009DH   SFRSYM    DATA     BYTE      IRCBAND
      00000097H   SFRSYM    DATA     BYTE      AUXR2
      000000EFH   SFRSYM    DATA     BYTE      AUXINTIF
      000000FDH   SFRSYM    DATA     BYTE      S4CON
      000000ACH   SFRSYM    DATA     BYTE      S3CON
      0000009AH   SFRSYM    DATA     BYTE      S2CON
      000000B7H   SFRSYM    DATA     BYTE      IPH
      000000CDH   SFRSYM    DATA     BYTE      SPSTAT
      000000DDH   SFRSYM    DATA     BYTE      T4T3M
      000000C1H   SFRSYM    DATA     BYTE      WDT_CONTR
      000000DFH   SFRSYM    DATA     BYTE      IP3
      000000F4H   SFRSYM    DATA     BYTE      USBCON
      000000B5H   SFRSYM    DATA     BYTE      IP2
      000000FFH   SFRSYM    DATA     BYTE      RSTCFG
      000000C7H   SFRSYM    DATA     BYTE      IAP_CONTR
      0000008EH   SFRSYM    DATA     BYTE      AUXR
      000000AFH   SFRSYM    DATA     BYTE      IE2
      00000088H   SFRSYM    DATA     BYTE      TCON
      00000089H   SFRSYM    DATA     BYTE      TMOD
      00000098H   SFRSYM    DATA     BYTE      SCON
      00000087H   SFRSYM    DATA     BYTE      PCON
      000000BCH   SFRSYM    DATA     BYTE      ADC_CONTR
      000000D1H   SFRSYM    DATA     BYTE      PSW1
      000000E7H   SFRSYM    DATA     BYTE      CMPCR2
L251 LINKER/LOCATER V4.66.93.0                                                        06/12/2025  20:04:03  PAGE 91


      000000E6H   SFRSYM    DATA     BYTE      CMPCR1
      000000DEH   SFRSYM    DATA     BYTE      ADCCFG
      000000B8H   SFRSYM    DATA     BYTE      IP
      0000008FH   SFRSYM    DATA     BYTE      INTCLKO
      000000EEH   SFRSYM    DATA     BYTE      IP3H
      000000B6H   SFRSYM    DATA     BYTE      IP2H
      000000BFH   SFRSYM    DATA     BYTE      P_SW4
      000000A8H   SFRSYM    DATA     BYTE      IE
      000000BBH   SFRSYM    DATA     BYTE      P_SW3
      000000BAH   SFRSYM    DATA     BYTE      P_SW2
      000000A2H   SFRSYM    DATA     BYTE      P_SW1
      000000CEH   SFRSYM    DATA     BYTE      SPCTL
      000000F8H   SFRSYM    DATA     BYTE      P7
      000000E8H   SFRSYM    DATA     BYTE      P6
      000000C8H   SFRSYM    DATA     BYTE      P5
      000000C0H   SFRSYM    DATA     BYTE      P4
      000000ABH   SFRSYM    DATA     BYTE      WKTCH
      000000B0H   SFRSYM    DATA     BYTE      P3
      000000A0H   SFRSYM    DATA     BYTE      P2
      00000090H   SFRSYM    DATA     BYTE      P1
      00000080H   SFRSYM    DATA     BYTE      P0
      000126A7H   SYMBOL    XDATA    ---       ble6a20_buffer
      000126E7H   SYMBOL    XDATA    ---       ble6a20_fifo
      00012EC9H   SYMBOL    XDATA    BYTE      dat
      00012ECAH   SYMBOL    XDATA    WORD      time_count

      00FFBAEDH   BLOCK     CODE     ---       LVL=0
      00012CA5H   SYMBOL    XDATA    ---       buff
      00012CA9H   SYMBOL    XDATA    DWORD     len
      00FFBB01H   BLOCK     CODE     NEAR LAB  LVL=1
      00012CADH   SYMBOL    XDATA    WORD      time_count
      ---         BLOCKEND  ---      ---       LVL=1
      00FFBAEDH   LINE      CODE     ---       #100
      00FFBB01H   LINE      CODE     ---       #101
      00FFBB01H   LINE      CODE     ---       #102
      00FFBB09H   LINE      CODE     ---       #105
      00FFBB0CH   LINE      CODE     ---       #107
      00FFBB18H   LINE      CODE     ---       #109
      00FFBB28H   LINE      CODE     ---       #111
      00FFBB3DH   LINE      CODE     ---       #112
      00FFBB52H   LINE      CODE     ---       #113
      00FFBB67H   LINE      CODE     ---       #114
      00FFBB6FH   LINE      CODE     ---       #115
      00FFBB71H   LINE      CODE     ---       #118
      00FFBB8EH   LINE      CODE     ---       #119
      00FFBB9AH   LINE      CODE     ---       #120
      00FFBB9CH   LINE      CODE     ---       #121
      00FFBB9CH   LINE      CODE     ---       #122
      00FFBB9CH   LINE      CODE     ---       #125
      00FFBBADH   LINE      CODE     ---       #127
      00FFBBADH   LINE      CODE     ---       #128
      00FFBBADH   LINE      CODE     ---       #130
      00FFBBB4H   LINE      CODE     ---       #131
      00FFBBB4H   LINE      CODE     ---       #132
      00FFBBC5H   LINE      CODE     ---       #134
      00FFBBCFH   LINE      CODE     ---       #135
      ---         BLOCKEND  ---      ---       LVL=0

      00FFD418H   BLOCK     CODE     ---       LVL=0
      00012BECH   SYMBOL    XDATA    ---       buff
      00012BF0H   SYMBOL    XDATA    DWORD     len
      00FFD42CH   BLOCK     CODE     NEAR LAB  LVL=1
      00012BF4H   SYMBOL    XDATA    DWORD     data_len
      ---         BLOCKEND  ---      ---       LVL=1
      00FFD418H   LINE      CODE     ---       #147
L251 LINKER/LOCATER V4.66.93.0                                                        06/12/2025  20:04:03  PAGE 92


      00FFD42CH   LINE      CODE     ---       #148
      00FFD42CH   LINE      CODE     ---       #149
      00FFD440H   LINE      CODE     ---       #151
      00FFD46FH   LINE      CODE     ---       #152
      00FFD479H   LINE      CODE     ---       #153
      ---         BLOCKEND  ---      ---       LVL=0

      00FFE1EDH   BLOCK     CODE     ---       LVL=0
      00012EF0H   SYMBOL    XDATA    BYTE      uart_dat
      00FFE1EDH   LINE      CODE     ---       #164
      00FFE1F1H   LINE      CODE     ---       #167
      00FFE212H   LINE      CODE     ---       #168
      ---         BLOCKEND  ---      ---       LVL=0

      00FFCDA2H   BLOCK     CODE     ---       LVL=0
      00012EF1H   SYMBOL    XDATA    BYTE      return_state
      00FFCDA2H   LINE      CODE     ---       #177
      00FFCDA2H   LINE      CODE     ---       #178
      00FFCDA2H   LINE      CODE     ---       #179
      00FFCDA7H   LINE      CODE     ---       #182
      00FFCDAEH   LINE      CODE     ---       #184
      00FFCDC1H   LINE      CODE     ---       #186
      00FFCDEEH   LINE      CODE     ---       #187
      00FFCDFFH   LINE      CODE     ---       #190
      00FFCE1CH   LINE      CODE     ---       #191
      00FFCE25H   LINE      CODE     ---       #193
      00FFCE29H   LINE      CODE     ---       #194
      ---         BLOCKEND  ---      ---       LVL=0

      ---         MODULE    ---      ---       zf_device_imu660ra
      00FFD8B4H   PUBLIC    CODE     ---       imu660ra_get_gyro
      00FF97C8H   PUBLIC    CODE     ---       imu660ra_init
      00012A38H   PUBLIC    XDATA    INT       imu660ra_acc_x
      00012A3AH   PUBLIC    XDATA    INT       imu660ra_acc_y
      00012A3CH   PUBLIC    XDATA    INT       imu660ra_acc_z
      00012A3EH   PUBLIC    XDATA    INT       imu660ra_gyro_x
      00012A40H   PUBLIC    XDATA    INT       imu660ra_gyro_y
      00012A42H   PUBLIC    XDATA    INT       imu660ra_gyro_z
      00012A44H   PUBLIC    XDATA    ---       imu660ra_transition_factor
      000000D0H   SFRSYM    DATA     BYTE      PSW
      0000009DH   SFRSYM    DATA     BYTE      IRCBAND
      00000097H   SFRSYM    DATA     BYTE      AUXR2
      000000EFH   SFRSYM    DATA     BYTE      AUXINTIF
      000000FDH   SFRSYM    DATA     BYTE      S4CON
      000000ACH   SFRSYM    DATA     BYTE      S3CON
      0000009AH   SFRSYM    DATA     BYTE      S2CON
      000000B7H   SFRSYM    DATA     BYTE      IPH
      000000CDH   SFRSYM    DATA     BYTE      SPSTAT
      000000DDH   SFRSYM    DATA     BYTE      T4T3M
      000000C1H   SFRSYM    DATA     BYTE      WDT_CONTR
      000000DFH   SFRSYM    DATA     BYTE      IP3
      000000F4H   SFRSYM    DATA     BYTE      USBCON
      000000B5H   SFRSYM    DATA     BYTE      IP2
      000000FFH   SFRSYM    DATA     BYTE      RSTCFG
      000000C7H   SFRSYM    DATA     BYTE      IAP_CONTR
      0000008EH   SFRSYM    DATA     BYTE      AUXR
      000000AFH   SFRSYM    DATA     BYTE      IE2
      00000088H   SFRSYM    DATA     BYTE      TCON
      00000089H   SFRSYM    DATA     BYTE      TMOD
      00000098H   SFRSYM    DATA     BYTE      SCON
      00000087H   SFRSYM    DATA     BYTE      PCON
      000000BCH   SFRSYM    DATA     BYTE      ADC_CONTR
      000000D1H   SFRSYM    DATA     BYTE      PSW1
      000000E7H   SFRSYM    DATA     BYTE      CMPCR2
      000000E6H   SFRSYM    DATA     BYTE      CMPCR1
L251 LINKER/LOCATER V4.66.93.0                                                        06/12/2025  20:04:03  PAGE 93


      000000DEH   SFRSYM    DATA     BYTE      ADCCFG
      000000B8H   SFRSYM    DATA     BYTE      IP
      0000008FH   SFRSYM    DATA     BYTE      INTCLKO
      000000EEH   SFRSYM    DATA     BYTE      IP3H
      000000B6H   SFRSYM    DATA     BYTE      IP2H
      000000BFH   SFRSYM    DATA     BYTE      P_SW4
      000000A8H   SFRSYM    DATA     BYTE      IE
      000000BBH   SFRSYM    DATA     BYTE      P_SW3
      000000BAH   SFRSYM    DATA     BYTE      P_SW2
      000000A2H   SFRSYM    DATA     BYTE      P_SW1
      000000CEH   SFRSYM    DATA     BYTE      SPCTL
      000000F8H   SFRSYM    DATA     BYTE      P7
      000000E8H   SFRSYM    DATA     BYTE      P6
      000000C8H   SFRSYM    DATA     BYTE      P5
      000000C0H   SFRSYM    DATA     BYTE      P4
      000000ABH   SFRSYM    DATA     BYTE      WKTCH
      000000B0H   SFRSYM    DATA     BYTE      P3
      000000A0H   SFRSYM    DATA     BYTE      P2
      00000090H   SFRSYM    DATA     BYTE      P1
      00000080H   SFRSYM    DATA     BYTE      P0
      00FFDE37H   SYMBOL    CODE     ---       imu660ra_read_register
      00FFD908H   SYMBOL    CODE     ---       imu660ra_write_registers
      00FFE11AH   SYMBOL    CODE     ---       imu660ra_write_register
      00FFD47AH   SYMBOL    CODE     ---       imu660ra_self_check
      00FFC0B1H   SYMBOL    CODE     ---       imu660ra_read_registers

      00FFE11AH   BLOCK     CODE     ---       LVL=0
      00012EE2H   SYMBOL    XDATA    BYTE      reg
      00012EE3H   SYMBOL    XDATA    BYTE      dat
      00FFE11AH   LINE      CODE     ---       #89
      00FFE124H   LINE      CODE     ---       #91
      00FFE12CH   LINE      CODE     ---       #92
      00FFE13DH   LINE      CODE     ---       #93
      00FFE146H   LINE      CODE     ---       #94
      ---         BLOCKEND  ---      ---       LVL=0

      00FFD908H   BLOCK     CODE     ---       LVL=0
      00012CDEH   SYMBOL    XDATA    BYTE      reg
      00012CDFH   SYMBOL    XDATA    ---       dat
      00012CE3H   SYMBOL    XDATA    DWORD     len
      00FFD908H   LINE      CODE     ---       #104
      00FFD920H   LINE      CODE     ---       #106
      00FFD928H   LINE      CODE     ---       #107
      00FFD951H   LINE      CODE     ---       #108
      00FFD95AH   LINE      CODE     ---       #109
      ---         BLOCKEND  ---      ---       LVL=0

      00FFDE37H   BLOCK     CODE     ---       LVL=0
      00012ECCH   SYMBOL    XDATA    BYTE      reg
      00FFDE3BH   BLOCK     CODE     NEAR LAB  LVL=1
      00012ECDH   SYMBOL    XDATA    ---       dat
      ---         BLOCKEND  ---      ---       LVL=1
      00FFDE37H   LINE      CODE     ---       #118
      00FFDE3BH   LINE      CODE     ---       #119
      00FFDE3BH   LINE      CODE     ---       #121
      00FFDE43H   LINE      CODE     ---       #122
      00FFDE66H   LINE      CODE     ---       #123
      00FFDE6FH   LINE      CODE     ---       #124
      00FFDE73H   LINE      CODE     ---       #125
      ---         BLOCKEND  ---      ---       LVL=0

      00FFC0B1H   BLOCK     CODE     ---       LVL=0
      00012A4CH   SYMBOL    XDATA    BYTE      reg
      00012A4DH   SYMBOL    XDATA    ---       dat
      00012A51H   SYMBOL    XDATA    DWORD     len
L251 LINKER/LOCATER V4.66.93.0                                                        06/12/2025  20:04:03  PAGE 94


      00FFC0C9H   BLOCK     CODE     NEAR LAB  LVL=1
      00012A55H   SYMBOL    XDATA    WORD      i
      00012A57H   SYMBOL    XDATA    ---       temp_data
      ---         BLOCKEND  ---      ---       LVL=1
      00FFC0B1H   LINE      CODE     ---       #136
      00FFC0C9H   LINE      CODE     ---       #137
      00FFC0C9H   LINE      CODE     ---       #138
      00FFC0D1H   LINE      CODE     ---       #140
      00FFC0D9H   LINE      CODE     ---       #141
      00FFC104H   LINE      CODE     ---       #142
      00FFC10DH   LINE      CODE     ---       #144
      00FFC117H   LINE      CODE     ---       #146
      00FFC14BH   LINE      CODE     ---       #147
      00FFC16CH   LINE      CODE     ---       #148
      ---         BLOCKEND  ---      ---       LVL=0

      00FFD47AH   BLOCK     CODE     ---       LVL=0
      00012E92H   SYMBOL    XDATA    BYTE      dat
      00012E93H   SYMBOL    XDATA    BYTE      return_state
      00012E94H   SYMBOL    XDATA    WORD      timeout_count
      00FFD47AH   LINE      CODE     ---       #158
      00FFD47AH   LINE      CODE     ---       #159
      00FFD47AH   LINE      CODE     ---       #160
      00FFD484H   LINE      CODE     ---       #161
      00FFD48CH   LINE      CODE     ---       #163
      00FFD48CH   LINE      CODE     ---       #165
      00FFD49FH   LINE      CODE     ---       #167
      00FFD4A5H   LINE      CODE     ---       #168
      00FFD4A7H   LINE      CODE     ---       #169
      00FFD4A7H   LINE      CODE     ---       #171
      00FFD4AFH   LINE      CODE     ---       #172
      00FFD4C6H   LINE      CODE     ---       #173
      00FFD4CDH   LINE      CODE     ---       #174
      00FFD4D4H   LINE      CODE     ---       #177
      00FFD4D8H   LINE      CODE     ---       #178
      ---         BLOCKEND  ---      ---       LVL=0
      00012E0AH   SYMBOL    XDATA    ---       dat

      00FFD8B4H   BLOCK     CODE     ---       LVL=0
      00012E10H   SYMBOL    XDATA    ---       dat
      00FFD8B4H   LINE      CODE     ---       #205
      00FFD8B4H   LINE      CODE     ---       #206
      00FFD8B4H   LINE      CODE     ---       #209
      00FFD8C5H   LINE      CODE     ---       #210
      00FFD8DBH   LINE      CODE     ---       #211
      00FFD8F1H   LINE      CODE     ---       #212
      00FFD907H   LINE      CODE     ---       #213
      ---         BLOCKEND  ---      ---       LVL=0

      00FF97C8H   BLOCK     CODE     ---       LVL=0
      00012EF2H   SYMBOL    XDATA    BYTE      return_state
      00FF97C8H   LINE      CODE     ---       #222
      00FF97C8H   LINE      CODE     ---       #223
      00FF97C8H   LINE      CODE     ---       #224
      00FF97CDH   LINE      CODE     ---       #225
      00FF97D4H   LINE      CODE     ---       #230
      00FF980DH   LINE      CODE     ---       #231
      00FF981EH   LINE      CODE     ---       #235
      00FF981EH   LINE      CODE     ---       #237
      00FF9823H   LINE      CODE     ---       #242
      00FF982EH   LINE      CODE     ---       #243
      00FF9834H   LINE      CODE     ---       #244
      00FF9837H   LINE      CODE     ---       #245
      00FF9837H   LINE      CODE     ---       #247
      00FF983EH   LINE      CODE     ---       #248
L251 LINKER/LOCATER V4.66.93.0                                                        06/12/2025  20:04:03  PAGE 95


      00FF9845H   LINE      CODE     ---       #249
      00FF984CH   LINE      CODE     ---       #250
      00FF985DH   LINE      CODE     ---       #251
      00FF9865H   LINE      CODE     ---       #252
      00FF986CH   LINE      CODE     ---       #254
      00FF9876H   LINE      CODE     ---       #259
      00FF9881H   LINE      CODE     ---       #260
      00FF9887H   LINE      CODE     ---       #261
      00FF988AH   LINE      CODE     ---       #262
      00FF988AH   LINE      CODE     ---       #264
      00FF9892H   LINE      CODE     ---       #265
      00FF989AH   LINE      CODE     ---       #266
      00FF98A2H   LINE      CODE     ---       #273
      00FF98BAH   LINE      CODE     ---       #275
      00FF98BAH   LINE      CODE     ---       #277
      00FF98C5H   LINE      CODE     ---       #278
      00FF98CBH   LINE      CODE     ---       #280
      00FF98CDH   LINE      CODE     ---       #282
      00FF98CDH   LINE      CODE     ---       #284
      00FF98D4H   LINE      CODE     ---       #285
      00FF98E4H   LINE      CODE     ---       #287
      00FF98E6H   LINE      CODE     ---       #289
      00FF98E6H   LINE      CODE     ---       #291
      00FF98EEH   LINE      CODE     ---       #292
      00FF98FEH   LINE      CODE     ---       #294
      00FF9900H   LINE      CODE     ---       #296
      00FF9900H   LINE      CODE     ---       #298
      00FF9908H   LINE      CODE     ---       #299
      00FF9918H   LINE      CODE     ---       #301
      00FF991AH   LINE      CODE     ---       #303
      00FF991AH   LINE      CODE     ---       #305
      00FF9922H   LINE      CODE     ---       #306
      00FF9932H   LINE      CODE     ---       #308
      00FF9932H   LINE      CODE     ---       #309
      00FF9932H   LINE      CODE     ---       #311
      00FF993EH   LINE      CODE     ---       #313
      00FF993EH   LINE      CODE     ---       #314
      00FF993EH   LINE      CODE     ---       #322
      00FF995DH   LINE      CODE     ---       #324
      00FF995DH   LINE      CODE     ---       #326
      00FF9968H   LINE      CODE     ---       #327
      00FF996EH   LINE      CODE     ---       #329
      00FF9971H   LINE      CODE     ---       #331
      00FF9971H   LINE      CODE     ---       #333
      00FF9979H   LINE      CODE     ---       #334
      00FF998BH   LINE      CODE     ---       #336
      00FF998DH   LINE      CODE     ---       #338
      00FF998DH   LINE      CODE     ---       #340
      00FF9995H   LINE      CODE     ---       #341
      00FF99A7H   LINE      CODE     ---       #343
      00FF99A9H   LINE      CODE     ---       #345
      00FF99A9H   LINE      CODE     ---       #347
      00FF99B1H   LINE      CODE     ---       #348
      00FF99C3H   LINE      CODE     ---       #350
      00FF99C5H   LINE      CODE     ---       #352
      00FF99C5H   LINE      CODE     ---       #354
      00FF99CDH   LINE      CODE     ---       #355
      00FF99DFH   LINE      CODE     ---       #357
      00FF99E1H   LINE      CODE     ---       #359
      00FF99E1H   LINE      CODE     ---       #361
      00FF99E8H   LINE      CODE     ---       #362
      00FF99FAH   LINE      CODE     ---       #364
      00FF99FAH   LINE      CODE     ---       #365
      00FF99FAH   LINE      CODE     ---       #367
      00FF99FAH   LINE      CODE     ---       #369
L251 LINKER/LOCATER V4.66.93.0                                                        06/12/2025  20:04:03  PAGE 96


      00FF99FAH   LINE      CODE     ---       #370
      00FF99FAH   LINE      CODE     ---       #374
      00FF99FEH   LINE      CODE     ---       #375
      ---         BLOCKEND  ---      ---       LVL=0

      ---         MODULE    ---      ---       zf_device_config
      00FF021EH   PUBLIC    CODE     ---       imu660ra_config_file

      ---         MODULE    ---      ---       seekfree_assistant
      00FFE0ECH   PUBLIC    CODE     ---       seekfree_assistant_init
      00FF8302H   PUBLIC    CODE     ---       seekfree_assistant_data_analysis
      0001201AH   PUBLIC    XDATA    ---       seekfree_assistant_oscilloscope_data
      00012055H   PUBLIC    XDATA    ---       seekfree_assistant_parameter_update_flag
      0001205DH   PUBLIC    XDATA    ---       seekfree_assistant_parameter
      00012AB5H   PUBLIC    XDATA    BYTE      ?seekfree_assistant_camera_data_send?BYTE
      00012CAFH   PUBLIC    XDATA    BYTE      ?seekfree_assistant_camera_information_config?BYTE
      00012911H   PUBLIC    XDATA    BYTE      ?seekfree_assistant_camera_boundary_config?BYTE
      000000D0H   SFRSYM    DATA     BYTE      PSW
      0000009DH   SFRSYM    DATA     BYTE      IRCBAND
      00000097H   SFRSYM    DATA     BYTE      AUXR2
      000000EFH   SFRSYM    DATA     BYTE      AUXINTIF
      000000FDH   SFRSYM    DATA     BYTE      S4CON
      000000ACH   SFRSYM    DATA     BYTE      S3CON
      0000009AH   SFRSYM    DATA     BYTE      S2CON
      000000B7H   SFRSYM    DATA     BYTE      IPH
      000000CDH   SFRSYM    DATA     BYTE      SPSTAT
      000000DDH   SFRSYM    DATA     BYTE      T4T3M
      000000C1H   SFRSYM    DATA     BYTE      WDT_CONTR
      000000DFH   SFRSYM    DATA     BYTE      IP3
      000000F4H   SFRSYM    DATA     BYTE      USBCON
      000000B5H   SFRSYM    DATA     BYTE      IP2
      000000FFH   SFRSYM    DATA     BYTE      RSTCFG
      000000C7H   SFRSYM    DATA     BYTE      IAP_CONTR
      0000008EH   SFRSYM    DATA     BYTE      AUXR
      000000AFH   SFRSYM    DATA     BYTE      IE2
      00000088H   SFRSYM    DATA     BYTE      TCON
      00000089H   SFRSYM    DATA     BYTE      TMOD
      00000098H   SFRSYM    DATA     BYTE      SCON
      00000087H   SFRSYM    DATA     BYTE      PCON
      000000BCH   SFRSYM    DATA     BYTE      ADC_CONTR
      000000D1H   SFRSYM    DATA     BYTE      PSW1
      000000E7H   SFRSYM    DATA     BYTE      CMPCR2
      000000E6H   SFRSYM    DATA     BYTE      CMPCR1
      000000DEH   SFRSYM    DATA     BYTE      ADCCFG
      000000B8H   SFRSYM    DATA     BYTE      IP
      0000008FH   SFRSYM    DATA     BYTE      INTCLKO
      000000EEH   SFRSYM    DATA     BYTE      IP3H
      000000B6H   SFRSYM    DATA     BYTE      IP2H
      000000BFH   SFRSYM    DATA     BYTE      P_SW4
      000000A8H   SFRSYM    DATA     BYTE      IE
      000000BBH   SFRSYM    DATA     BYTE      P_SW3
      000000BAH   SFRSYM    DATA     BYTE      P_SW2
      000000A2H   SFRSYM    DATA     BYTE      P_SW1
      000000CEH   SFRSYM    DATA     BYTE      SPCTL
      000000F8H   SFRSYM    DATA     BYTE      P7
      000000A8H.7 SFRSYM    DATA     BIT       EA
      000000E8H   SFRSYM    DATA     BYTE      P6
      000000C8H   SFRSYM    DATA     BYTE      P5
      000000C0H   SFRSYM    DATA     BYTE      P4
      000000ABH   SFRSYM    DATA     BYTE      WKTCH
      000000B0H   SFRSYM    DATA     BYTE      P3
      000000A0H   SFRSYM    DATA     BYTE      P2
      00000090H   SFRSYM    DATA     BYTE      P1
      00000080H   SFRSYM    DATA     BYTE      P0
      00FFD760H   SYMBOL    CODE     ---       seekfree_assistant_sum
L251 LINKER/LOCATER V4.66.93.0                                                        06/12/2025  20:04:03  PAGE 97


      00012012H   SYMBOL    XDATA    ---       seekfree_assistant_camera_dot_data
      0001203EH   SYMBOL    XDATA    ---       seekfree_assistant_fifo
      0001207DH   SYMBOL    XDATA    ---       seekfree_assistant_camera_buffer
      000120C7H   SYMBOL    XDATA    ---       seekfree_assistant_camera_data
      000120CFH   SYMBOL    XDATA    ---       seekfree_assistant_buffer
      00FFF594H   SYMBOL    HCONST   ---       ?tpl?0001
      00FFF5B8H   SYMBOL    HCONST   ---       ?tpl?0002

      00FFD760H   BLOCK     CODE     ---       LVL=0
      00012CE7H   SYMBOL    XDATA    ---       buffer
      00012CEBH   SYMBOL    XDATA    DWORD     length
      00FFD774H   BLOCK     CODE     NEAR LAB  LVL=1
      00012CEFH   SYMBOL    XDATA    BYTE      temp_sum
      ---         BLOCKEND  ---      ---       LVL=1
      00FFD760H   LINE      CODE     ---       #57
      00FFD774H   LINE      CODE     ---       #58
      00FFD774H   LINE      CODE     ---       #59
      00FFD779H   LINE      CODE     ---       #61
      00FFD77BH   LINE      CODE     ---       #63
      00FFD798H   LINE      CODE     ---       #64
      00FFD7B1H   LINE      CODE     ---       #66
      00FFD7B5H   LINE      CODE     ---       #67
      ---         BLOCKEND  ---      ---       LVL=0
      00012AB5H   SYMBOL    XDATA    INT       camera_type
      00012AB7H   SYMBOL    XDATA    ---       image_addr
      00012ABBH   SYMBOL    XDATA    BYTE      boundary_num
      00012ABCH   SYMBOL    XDATA    WORD      width
      00012ABEH   SYMBOL    XDATA    WORD      height
      00012AC0H   SYMBOL    XDATA    DWORD     image_size
      00012CAFH   SYMBOL    XDATA    INT       camera_type
      00012CB1H   SYMBOL    XDATA    ---       image_addr
      00012CB5H   SYMBOL    XDATA    WORD      width
      00012CB7H   SYMBOL    XDATA    WORD      height
      000127CEH   SYMBOL    XDATA    ---       seekfree_assistant_oscilloscope
      000127D2H   SYMBOL    XDATA    BYTE      packet_size
      000127D3H   SYMBOL    XDATA    BYTE      i
      000127D4H   SYMBOL    XDATA    ---       temp_oscilloscope
      00012DAFH   SYMBOL    XDATA    ---       buffer
      00012DB3H   SYMBOL    XDATA    BYTE      i
      00012DB4H   SYMBOL    XDATA    WORD      dot_bytes
      00012911H   SYMBOL    XDATA    INT       boundary_type
      00012913H   SYMBOL    XDATA    WORD      dot_num
      00012915H   SYMBOL    XDATA    ---       dot_x1
      00012919H   SYMBOL    XDATA    ---       dot_x2
      0001291DH   SYMBOL    XDATA    ---       dot_x3
      00012921H   SYMBOL    XDATA    ---       dot_y1
      00012925H   SYMBOL    XDATA    ---       dot_y2
      00012929H   SYMBOL    XDATA    ---       dot_y3
      0001292DH   SYMBOL    XDATA    BYTE      i
      0001292EH   SYMBOL    XDATA    BYTE      boundary_num
      0001292FH   SYMBOL    XDATA    BYTE      boundary_data_type

      00FF8302H   BLOCK     CODE     ---       LVL=0
      00012560H   SYMBOL    XDATA    BYTE      temp_sum
      00012561H   SYMBOL    XDATA    DWORD     read_length
      00012565H   SYMBOL    XDATA    WORD      struct_len
      00012567H   SYMBOL    XDATA    ---       receive_packet
      0001256BH   SYMBOL    XDATA    ---       temp_buffer
      000125EBH   SYMBOL    XDATA    DWORD     i
      00000020H.3 SYMBOL    BIT      BIT       flag
      00FF8302H   LINE      CODE     ---       #345
      00FF8302H   LINE      CODE     ---       #346
      00FF8302H   LINE      CODE     ---       #348
      00FF8307H   LINE      CODE     ---       #349
      00FF8313H   LINE      CODE     ---       #350
L251 LINKER/LOCATER V4.66.93.0                                                        06/12/2025  20:04:03  PAGE 98


      00FF831DH   LINE      CODE     ---       #354
      00FF8332H   LINE      CODE     ---       #356
      00FF833EH   LINE      CODE     ---       #358
      00FF8340H   LINE      CODE     ---       #359
      00FF8344H   LINE      CODE     ---       #361
      00FF8346H   LINE      CODE     ---       #364
      00FF8364H   LINE      CODE     ---       #366
      00FF8372H   LINE      CODE     ---       #369
      00FF8399H   LINE      CODE     ---       #370
      00FF8399H   LINE      CODE     ---       #372
      00FF839CH   LINE      CODE     ---       #375
      00FF83AAH   LINE      CODE     ---       #376
      00FF83D9H   LINE      CODE     ---       #377
      00FF83E9H   LINE      CODE     ---       #380
      00FF83F7H   LINE      CODE     ---       #381
      00FF83FAH   LINE      CODE     ---       #386
      00FF840CH   LINE      CODE     ---       #387
      00FF841EH   LINE      CODE     ---       #388
      00FF842DH   LINE      CODE     ---       #390
      00FF8449H   LINE      CODE     ---       #395
      00FF8479H   LINE      CODE     ---       #396
      00FF84A9H   LINE      CODE     ---       #397
      00FF84D9H   LINE      CODE     ---       #398
      00FF8507H   LINE      CODE     ---       #399
      00FF8524H   LINE      CODE     ---       #400
      00FF8526H   LINE      CODE     ---       #403
      00FF8534H   LINE      CODE     ---       #404
      00FF8534H   LINE      CODE     ---       #405
      00FF8534H   LINE      CODE     ---       #408
      00FF8561H   LINE      CODE     ---       #409
      00FF857DH   LINE      CODE     ---       #410
      00FF8581H   LINE      CODE     ---       #411
      ---         BLOCKEND  ---      ---       LVL=0

      00FFE0ECH   BLOCK     CODE     ---       LVL=0
      00FFE0ECH   LINE      CODE     ---       #436
      00FFE0ECH   LINE      CODE     ---       #438
      00FFE119H   LINE      CODE     ---       #439
      ---         BLOCKEND  ---      ---       LVL=0

      ---         MODULE    ---      ---       seekfree_assistant_interface
      00FFDC84H   PUBLIC    CODE     ---       seekfree_assistant_interface_init
      00012E96H   PUBLIC    XDATA    ---       seekfree_assistant_receive_callback
      00012E98H   PUBLIC    XDATA    ---       seekfree_assistant_transfer_callback
      000000D0H   SFRSYM    DATA     BYTE      PSW
      0000009DH   SFRSYM    DATA     BYTE      IRCBAND
      00000097H   SFRSYM    DATA     BYTE      AUXR2
      000000EFH   SFRSYM    DATA     BYTE      AUXINTIF
      000000FDH   SFRSYM    DATA     BYTE      S4CON
      000000ACH   SFRSYM    DATA     BYTE      S3CON
      0000009AH   SFRSYM    DATA     BYTE      S2CON
      000000B7H   SFRSYM    DATA     BYTE      IPH
      000000CDH   SFRSYM    DATA     BYTE      SPSTAT
      000000DDH   SFRSYM    DATA     BYTE      T4T3M
      000000C1H   SFRSYM    DATA     BYTE      WDT_CONTR
      000000DFH   SFRSYM    DATA     BYTE      IP3
      000000F4H   SFRSYM    DATA     BYTE      USBCON
      000000B5H   SFRSYM    DATA     BYTE      IP2
      000000FFH   SFRSYM    DATA     BYTE      RSTCFG
      000000C7H   SFRSYM    DATA     BYTE      IAP_CONTR
      0000008EH   SFRSYM    DATA     BYTE      AUXR
      000000AFH   SFRSYM    DATA     BYTE      IE2
      00000088H   SFRSYM    DATA     BYTE      TCON
      00000089H   SFRSYM    DATA     BYTE      TMOD
      00000098H   SFRSYM    DATA     BYTE      SCON
L251 LINKER/LOCATER V4.66.93.0                                                        06/12/2025  20:04:03  PAGE 99


      00000087H   SFRSYM    DATA     BYTE      PCON
      000000BCH   SFRSYM    DATA     BYTE      ADC_CONTR
      000000D1H   SFRSYM    DATA     BYTE      PSW1
      000000E7H   SFRSYM    DATA     BYTE      CMPCR2
      000000E6H   SFRSYM    DATA     BYTE      CMPCR1
      000000DEH   SFRSYM    DATA     BYTE      ADCCFG
      000000B8H   SFRSYM    DATA     BYTE      IP
      0000008FH   SFRSYM    DATA     BYTE      INTCLKO
      000000EEH   SFRSYM    DATA     BYTE      IP3H
      000000B6H   SFRSYM    DATA     BYTE      IP2H
      000000BFH   SFRSYM    DATA     BYTE      P_SW4
      000000A8H   SFRSYM    DATA     BYTE      IE
      000000BBH   SFRSYM    DATA     BYTE      P_SW3
      000000BAH   SFRSYM    DATA     BYTE      P_SW2
      000000A2H   SFRSYM    DATA     BYTE      P_SW1
      000000CEH   SFRSYM    DATA     BYTE      SPCTL
      000000F8H   SFRSYM    DATA     BYTE      P7
      000000E8H   SFRSYM    DATA     BYTE      P6
      000000C8H   SFRSYM    DATA     BYTE      P5
      000000C0H   SFRSYM    DATA     BYTE      P4
      000000ABH   SFRSYM    DATA     BYTE      WKTCH
      000000B0H   SFRSYM    DATA     BYTE      P3
      000000A0H   SFRSYM    DATA     BYTE      P2
      00000090H   SFRSYM    DATA     BYTE      P1
      00000080H   SFRSYM    DATA     BYTE      P0

      00FFDC84H   BLOCK     CODE     ---       LVL=0
      00012EE4H   SYMBOL    XDATA    INT       transfer_device
      00FFDC84H   LINE      CODE     ---       #33
      00FFDC8AH   LINE      CODE     ---       #35
      00FFDC98H   LINE      CODE     ---       #37
      00FFDC98H   LINE      CODE     ---       #39
      00FFDCA2H   LINE      CODE     ---       #40
      00FFDCACH   LINE      CODE     ---       #41
      00FFDCAEH   LINE      CODE     ---       #44
      00FFDCAEH   LINE      CODE     ---       #46
      00FFDCB8H   LINE      CODE     ---       #47
      00FFDCC2H   LINE      CODE     ---       #48
      00FFDCC2H   LINE      CODE     ---       #50
      00FFDCC2H   LINE      CODE     ---       #54
      00FFDCC2H   LINE      CODE     ---       #55
      00FFDCC2H   LINE      CODE     ---       #56
      ---         BLOCKEND  ---      ---       LVL=0

      ---         MODULE    ---      ---       isr
      00FFDA96H   PUBLIC    CODE     ---       TM11_IRQHandler
      00FFC4E5H   PUBLIC    CODE     ---       DMA_UART1_IRQHandler
      00FFCAF6H   PUBLIC    CODE     ---       DMA_UART2_IRQHandler
      00FFCB7FH   PUBLIC    CODE     ---       DMA_UART3_IRQHandler
      00FFCC08H   PUBLIC    CODE     ---       DMA_UART4_IRQHandler
      00FFDCC3H   PUBLIC    CODE     ---       TM0_IRQHandler
      00FFDD01H   PUBLIC    CODE     ---       TM1_IRQHandler
      00FFDD3FH   PUBLIC    CODE     ---       TM2_IRQHandler
      00FFDD7DH   PUBLIC    CODE     ---       TM3_IRQHandler
      00FFDDBBH   PUBLIC    CODE     ---       TM4_IRQHandler
      000000D0H   SFRSYM    DATA     BYTE      PSW
      0000009DH   SFRSYM    DATA     BYTE      IRCBAND
      00000097H   SFRSYM    DATA     BYTE      AUXR2
      000000EFH   SFRSYM    DATA     BYTE      AUXINTIF
      000000FDH   SFRSYM    DATA     BYTE      S4CON
      000000ACH   SFRSYM    DATA     BYTE      S3CON
      0000009AH   SFRSYM    DATA     BYTE      S2CON
      000000B7H   SFRSYM    DATA     BYTE      IPH
      000000CDH   SFRSYM    DATA     BYTE      SPSTAT
      000000DDH   SFRSYM    DATA     BYTE      T4T3M
L251 LINKER/LOCATER V4.66.93.0                                                        06/12/2025  20:04:03  PAGE 100


      000000C1H   SFRSYM    DATA     BYTE      WDT_CONTR
      000000DFH   SFRSYM    DATA     BYTE      IP3
      000000F4H   SFRSYM    DATA     BYTE      USBCON
      000000B5H   SFRSYM    DATA     BYTE      IP2
      000000FFH   SFRSYM    DATA     BYTE      RSTCFG
      000000C7H   SFRSYM    DATA     BYTE      IAP_CONTR
      0000008EH   SFRSYM    DATA     BYTE      AUXR
      000000AFH   SFRSYM    DATA     BYTE      IE2
      00000088H   SFRSYM    DATA     BYTE      TCON
      00000089H   SFRSYM    DATA     BYTE      TMOD
      00000098H   SFRSYM    DATA     BYTE      SCON
      00000087H   SFRSYM    DATA     BYTE      PCON
      000000BCH   SFRSYM    DATA     BYTE      ADC_CONTR
      000000D1H   SFRSYM    DATA     BYTE      PSW1
      000000E7H   SFRSYM    DATA     BYTE      CMPCR2
      000000E6H   SFRSYM    DATA     BYTE      CMPCR1
      000000DEH   SFRSYM    DATA     BYTE      ADCCFG
      000000B8H   SFRSYM    DATA     BYTE      IP
      0000008FH   SFRSYM    DATA     BYTE      INTCLKO
      000000EEH   SFRSYM    DATA     BYTE      IP3H
      000000B6H   SFRSYM    DATA     BYTE      IP2H
      000000BFH   SFRSYM    DATA     BYTE      P_SW4
      000000A8H   SFRSYM    DATA     BYTE      IE
      000000BBH   SFRSYM    DATA     BYTE      P_SW3
      000000BAH   SFRSYM    DATA     BYTE      P_SW2
      000000A2H   SFRSYM    DATA     BYTE      P_SW1
      000000CEH   SFRSYM    DATA     BYTE      SPCTL
      000000F8H   SFRSYM    DATA     BYTE      P7
      000000E8H   SFRSYM    DATA     BYTE      P6
      000000C8H   SFRSYM    DATA     BYTE      P5
      000000C0H   SFRSYM    DATA     BYTE      P4
      000000ABH   SFRSYM    DATA     BYTE      WKTCH
      000000B0H   SFRSYM    DATA     BYTE      P3
      000000A0H   SFRSYM    DATA     BYTE      P2
      00000090H   SFRSYM    DATA     BYTE      P1
      00000080H   SFRSYM    DATA     BYTE      P0

      00FFC4E5H   BLOCK     CODE     ---       LVL=0
      00FFC4F9H   BLOCK     CODE     NEAR LAB  LVL=1
      00012EF3H   SYMBOL    XDATA    BYTE      dwon_count
      ---         BLOCKEND  ---      ---       LVL=1
      00FFC4E5H   LINE      CODE     ---       #40
      00FFC4F9H   LINE      CODE     ---       #41
      00FFC4F9H   LINE      CODE     ---       #43
      00FFC507H   LINE      CODE     ---       #45
      00FFC517H   LINE      CODE     ---       #46
      00FFC51CH   LINE      CODE     ---       #49
      00FFC523H   LINE      CODE     ---       #51
      00FFC532H   LINE      CODE     ---       #53
      00FFC535H   LINE      CODE     ---       #54
      00FFC537H   LINE      CODE     ---       #58
      00FFC53CH   LINE      CODE     ---       #59
      00FFC53CH   LINE      CODE     ---       #61
      00FFC546H   LINE      CODE     ---       #63
      00FFC552H   LINE      CODE     ---       #64
      00FFC552H   LINE      CODE     ---       #67
      00FFC560H   LINE      CODE     ---       #69
      00FFC570H   LINE      CODE     ---       #70
      00FFC575H   LINE      CODE     ---       #74
      ---         BLOCKEND  ---      ---       LVL=0

      00FFCAF6H   BLOCK     CODE     ---       LVL=0
      00FFCAF6H   LINE      CODE     ---       #79
      00FFCB0AH   LINE      CODE     ---       #82
      00FFCB18H   LINE      CODE     ---       #84
L251 LINKER/LOCATER V4.66.93.0                                                        06/12/2025  20:04:03  PAGE 101


      00FFCB28H   LINE      CODE     ---       #85
      00FFCB2FH   LINE      CODE     ---       #87
      00FFCB39H   LINE      CODE     ---       #89
      00FFCB45H   LINE      CODE     ---       #90
      00FFCB45H   LINE      CODE     ---       #93
      00FFCB53H   LINE      CODE     ---       #95
      00FFCB63H   LINE      CODE     ---       #96
      00FFCB6AH   LINE      CODE     ---       #101
      ---         BLOCKEND  ---      ---       LVL=0

      00FFCB7FH   BLOCK     CODE     ---       LVL=0
      00FFCB7FH   LINE      CODE     ---       #104
      00FFCB93H   LINE      CODE     ---       #107
      00FFCBA1H   LINE      CODE     ---       #109
      00FFCBB1H   LINE      CODE     ---       #110
      00FFCBB8H   LINE      CODE     ---       #112
      00FFCBC2H   LINE      CODE     ---       #115
      00FFCBCEH   LINE      CODE     ---       #117
      00FFCBCEH   LINE      CODE     ---       #120
      00FFCBDCH   LINE      CODE     ---       #122
      00FFCBECH   LINE      CODE     ---       #123
      00FFCBF3H   LINE      CODE     ---       #128
      ---         BLOCKEND  ---      ---       LVL=0

      00FFCC08H   BLOCK     CODE     ---       LVL=0
      00FFCC08H   LINE      CODE     ---       #131
      00FFCC1CH   LINE      CODE     ---       #134
      00FFCC2AH   LINE      CODE     ---       #136
      00FFCC3AH   LINE      CODE     ---       #137
      00FFCC41H   LINE      CODE     ---       #139
      00FFCC4BH   LINE      CODE     ---       #141
      00FFCC57H   LINE      CODE     ---       #143
      00FFCC57H   LINE      CODE     ---       #146
      00FFCC65H   LINE      CODE     ---       #148
      00FFCC75H   LINE      CODE     ---       #149
      00FFCC7CH   LINE      CODE     ---       #154
      ---         BLOCKEND  ---      ---       LVL=0

      00FFDCC3H   BLOCK     CODE     ---       LVL=0
      00FFDCC3H   LINE      CODE     ---       #158
      00FFDCD7H   LINE      CODE     ---       #160
      00FFDCDAH   LINE      CODE     ---       #162
      00FFDCE4H   LINE      CODE     ---       #164
      00FFDCECH   LINE      CODE     ---       #165
      ---         BLOCKEND  ---      ---       LVL=0

      00FFDD01H   BLOCK     CODE     ---       LVL=0
      00FFDD01H   LINE      CODE     ---       #167
      00FFDD15H   LINE      CODE     ---       #169
      00FFDD18H   LINE      CODE     ---       #171
      00FFDD22H   LINE      CODE     ---       #173
      00FFDD2AH   LINE      CODE     ---       #174
      ---         BLOCKEND  ---      ---       LVL=0

      00FFDD3FH   BLOCK     CODE     ---       LVL=0
      00FFDD3FH   LINE      CODE     ---       #176
      00FFDD53H   LINE      CODE     ---       #178
      00FFDD56H   LINE      CODE     ---       #180
      00FFDD60H   LINE      CODE     ---       #182
      00FFDD68H   LINE      CODE     ---       #183
      ---         BLOCKEND  ---      ---       LVL=0

      00FFDD7DH   BLOCK     CODE     ---       LVL=0
      00FFDD7DH   LINE      CODE     ---       #185
      00FFDD91H   LINE      CODE     ---       #187
L251 LINKER/LOCATER V4.66.93.0                                                        06/12/2025  20:04:03  PAGE 102


      00FFDD94H   LINE      CODE     ---       #189
      00FFDD9EH   LINE      CODE     ---       #191
      00FFDDA6H   LINE      CODE     ---       #192
      ---         BLOCKEND  ---      ---       LVL=0

      00FFDDBBH   BLOCK     CODE     ---       LVL=0
      00FFDDBBH   LINE      CODE     ---       #195
      00FFDDCFH   LINE      CODE     ---       #197
      00FFDDD2H   LINE      CODE     ---       #199
      00FFDDDCH   LINE      CODE     ---       #201
      00FFDDE4H   LINE      CODE     ---       #202
      ---         BLOCKEND  ---      ---       LVL=0

      00FFDA96H   BLOCK     CODE     ---       LVL=0
      00FFDA96H   LINE      CODE     ---       #205
      00FFDAAAH   LINE      CODE     ---       #207
      00FFDABAH   LINE      CODE     ---       #209
      00FFDAC4H   LINE      CODE     ---       #211
      00FFDACCH   LINE      CODE     ---       #212
      00FFDACFH   LINE      CODE     ---       #213
      ---         BLOCKEND  ---      ---       LVL=0

      ---         MODULE    ---      ---       main
      00FF5ED7H   PUBLIC    CODE     ---       main
      000000D0H   SFRSYM    DATA     BYTE      PSW
      0000009DH   SFRSYM    DATA     BYTE      IRCBAND
      00000097H   SFRSYM    DATA     BYTE      AUXR2
      000000EFH   SFRSYM    DATA     BYTE      AUXINTIF
      000000FDH   SFRSYM    DATA     BYTE      S4CON
      000000ACH   SFRSYM    DATA     BYTE      S3CON
      0000009AH   SFRSYM    DATA     BYTE      S2CON
      000000B7H   SFRSYM    DATA     BYTE      IPH
      000000CDH   SFRSYM    DATA     BYTE      SPSTAT
      000000DDH   SFRSYM    DATA     BYTE      T4T3M
      000000C1H   SFRSYM    DATA     BYTE      WDT_CONTR
      000000DFH   SFRSYM    DATA     BYTE      IP3
      000000F4H   SFRSYM    DATA     BYTE      USBCON
      000000B5H   SFRSYM    DATA     BYTE      IP2
      000000FFH   SFRSYM    DATA     BYTE      RSTCFG
      000000C7H   SFRSYM    DATA     BYTE      IAP_CONTR
      0000008EH   SFRSYM    DATA     BYTE      AUXR
      000000AFH   SFRSYM    DATA     BYTE      IE2
      00000088H   SFRSYM    DATA     BYTE      TCON
      00000089H   SFRSYM    DATA     BYTE      TMOD
      00000098H   SFRSYM    DATA     BYTE      SCON
      00000087H   SFRSYM    DATA     BYTE      PCON
      000000BCH   SFRSYM    DATA     BYTE      ADC_CONTR
      000000D1H   SFRSYM    DATA     BYTE      PSW1
      000000E7H   SFRSYM    DATA     BYTE      CMPCR2
      000000E6H   SFRSYM    DATA     BYTE      CMPCR1
      000000DEH   SFRSYM    DATA     BYTE      ADCCFG
      000000B8H   SFRSYM    DATA     BYTE      IP
      0000008FH   SFRSYM    DATA     BYTE      INTCLKO
      000000EEH   SFRSYM    DATA     BYTE      IP3H
      000000B6H   SFRSYM    DATA     BYTE      IP2H
      000000BFH   SFRSYM    DATA     BYTE      P_SW4
      000000A8H   SFRSYM    DATA     BYTE      IE
      000000BBH   SFRSYM    DATA     BYTE      P_SW3
      000000BAH   SFRSYM    DATA     BYTE      P_SW2
      000000A2H   SFRSYM    DATA     BYTE      P_SW1
      000000CEH   SFRSYM    DATA     BYTE      SPCTL
      000000F8H   SFRSYM    DATA     BYTE      P7
      000000E8H   SFRSYM    DATA     BYTE      P6
      000000C8H   SFRSYM    DATA     BYTE      P5
      000000C0H   SFRSYM    DATA     BYTE      P4
L251 LINKER/LOCATER V4.66.93.0                                                        06/12/2025  20:04:03  PAGE 103


      000000ABH   SFRSYM    DATA     BYTE      WKTCH
      000000B0H   SFRSYM    DATA     BYTE      P3
      000000A0H   SFRSYM    DATA     BYTE      P2
      00000090H   SFRSYM    DATA     BYTE      P1
      00000080H   SFRSYM    DATA     BYTE      P0

      00FF5ED7H   BLOCK     CODE     ---       LVL=0
      00FF5ED7H   LINE      CODE     ---       #38
      00FF5ED7H   LINE      CODE     ---       #40
      00FF5EE2H   LINE      CODE     ---       #41
      00FF5EE5H   LINE      CODE     ---       #43
      00FF5EE8H   LINE      CODE     ---       #49
      00FF5EE8H   LINE      CODE     ---       #52
      00FF5F10H   LINE      CODE     ---       #53
      00FF5F13H   LINE      CODE     ---       #54
      00FF5F55H   LINE      CODE     ---       #56
      00FF5F87H   LINE      CODE     ---       #57
      00FF5FE4H   LINE      CODE     ---       #58
      00FF5FE7H   LINE      CODE     ---       #59
      00FF5FEAH   LINE      CODE     ---       #66
      00FF602CH   LINE      CODE     ---       #68
      00FF605EH   LINE      CODE     ---       #69
      00FF60BBH   LINE      CODE     ---       #70
      00FF60BEH   LINE      CODE     ---       #71
      00FF6100H   LINE      CODE     ---       #73
      00FF6132H   LINE      CODE     ---       #74
      00FF6135H   LINE      CODE     ---       #75
      00FF6192H   LINE      CODE     ---       #76
      00FF61D4H   LINE      CODE     ---       #78
      00FF6206H   LINE      CODE     ---       #79
      00FF6209H   LINE      CODE     ---       #81
      00FF620CH   LINE      CODE     ---       #82
      00FF626CH   LINE      CODE     ---       #83
      00FF62B2H   LINE      CODE     ---       #84
      00FF62B2H   LINE      CODE     ---       #85
      ---         BLOCKEND  ---      ---       LVL=0

      ---         MODULE    ---      ---       command
      00FF0003H   PUBLIC    CODE     ---       eeprom_erase
      00FFD0E6H   PUBLIC    CODE     ---       seekfree_assistant_oscilloscope_code
      00FFD4D9H   PUBLIC    CODE     ---       encoder_text
      00FFDC03H   PUBLIC    CODE     ---       encoder_integrate
      00FFE172H   PUBLIC    CODE     ---       pit_handler
      00FFD595H   PUBLIC    CODE     ---       display_vcc
      00FF8582H   PUBLIC    CODE     ---       eeprom_write
      00FF8C8DH   PUBLIC    CODE     ---       eeprom_init_code
      00FF019EH   PUBLIC    CODE     ---       seekfree_assistant_oscilloscope_init
      00FFCC91H   PUBLIC    CODE     ---       adc_main_read
      00FFD5F2H   PUBLIC    CODE     ---       uart_printf
      00FFE19DH   PUBLIC    CODE     ---       buzzer_time
      00FFDF8AH   PUBLIC    CODE     ---       adc_main_init
      00FFA9EDH   PUBLIC    CODE     ---       adc_text
      00FFCE2AH   PUBLIC    CODE     ---       uart_printf_test
      00FF7DF5H   PUBLIC    CODE     ---       eeprom_read_inductance_max_min
      00FF2F17H   PUBLIC    CODE     ---       seekfree_assistant_set_parameter
      00FF8EDBH   PUBLIC    CODE     ---       eeprom_write_inductance_max_min
      00FFBF37H   PUBLIC    CODE     ---       to_init
      00FFDAE4H   PUBLIC    CODE     ---       encoder_init
      000124BDH   PUBLIC    XDATA    INT       L_encoder
      000124BFH   PUBLIC    XDATA    INT       encoder_data_dir_1
      000124C1H   PUBLIC    XDATA    INT       encoder_data_dir_2
      000124C3H   PUBLIC    XDATA    INT       R_encoder
      000124C5H   PUBLIC    XDATA    BYTE      encoder_integral_flag
      000124C6H   PUBLIC    XDATA    DWORD     time_delta
      000124CAH   PUBLIC    XDATA    FLOAT     inductance_horizontal_middle
L251 LINKER/LOCATER V4.66.93.0                                                        06/12/2025  20:04:03  PAGE 104


      000124CEH   PUBLIC    XDATA    DWORD     encoder_integral_1
      000124D2H   PUBLIC    XDATA    DWORD     encoder_integral_2
      000124D6H   PUBLIC    XDATA    FLOAT     vcc
      000124DAH   PUBLIC    XDATA    FLOAT     speed_L
      000124DEH   PUBLIC    XDATA    DWORD     time_start
      000124E2H   PUBLIC    XDATA    FLOAT     speed_R
      000124E6H   PUBLIC    XDATA    DWORD     time_end
      000124EAH   PUBLIC    XDATA    ---       eeprom_PID
      00012518H   PUBLIC    XDATA    ---       txt
      00012538H   PUBLIC    XDATA    FLOAT     inductance_horizontal_1
      0001253CH   PUBLIC    XDATA    FLOAT     inductance_horizontal_4
      00012540H   PUBLIC    XDATA    ---       inductance_max_min
      00012558H   PUBLIC    XDATA    FLOAT     inductance_vertical_2
      0001255CH   PUBLIC    XDATA    FLOAT     inductance_vertical_3
      000122ABH   PUBLIC    XDATA    BYTE      ?uart_printf?BYTE
      000000D0H   SFRSYM    DATA     BYTE      PSW
      0000009DH   SFRSYM    DATA     BYTE      IRCBAND
      00000097H   SFRSYM    DATA     BYTE      AUXR2
      000000EFH   SFRSYM    DATA     BYTE      AUXINTIF
      000000FDH   SFRSYM    DATA     BYTE      S4CON
      000000ACH   SFRSYM    DATA     BYTE      S3CON
      0000009AH   SFRSYM    DATA     BYTE      S2CON
      000000B7H   SFRSYM    DATA     BYTE      IPH
      000000CDH   SFRSYM    DATA     BYTE      SPSTAT
      000000DDH   SFRSYM    DATA     BYTE      T4T3M
      000000C1H   SFRSYM    DATA     BYTE      WDT_CONTR
      000000DFH   SFRSYM    DATA     BYTE      IP3
      000000F4H   SFRSYM    DATA     BYTE      USBCON
      000000B5H   SFRSYM    DATA     BYTE      IP2
      000000FFH   SFRSYM    DATA     BYTE      RSTCFG
      000000C7H   SFRSYM    DATA     BYTE      IAP_CONTR
      0000008EH   SFRSYM    DATA     BYTE      AUXR
      000000AFH   SFRSYM    DATA     BYTE      IE2
      00000088H   SFRSYM    DATA     BYTE      TCON
      00000089H   SFRSYM    DATA     BYTE      TMOD
      00000098H   SFRSYM    DATA     BYTE      SCON
      00000087H   SFRSYM    DATA     BYTE      PCON
      000000BCH   SFRSYM    DATA     BYTE      ADC_CONTR
      000000D1H   SFRSYM    DATA     BYTE      PSW1
      000000E7H   SFRSYM    DATA     BYTE      CMPCR2
      000000E6H   SFRSYM    DATA     BYTE      CMPCR1
      000000DEH   SFRSYM    DATA     BYTE      ADCCFG
      000000B8H   SFRSYM    DATA     BYTE      IP
      0000008FH   SFRSYM    DATA     BYTE      INTCLKO
      000000EEH   SFRSYM    DATA     BYTE      IP3H
      000000B6H   SFRSYM    DATA     BYTE      IP2H
      000000BFH   SFRSYM    DATA     BYTE      P_SW4
      000000A8H   SFRSYM    DATA     BYTE      IE
      000000BBH   SFRSYM    DATA     BYTE      P_SW3
      000000BAH   SFRSYM    DATA     BYTE      P_SW2
      000000A2H   SFRSYM    DATA     BYTE      P_SW1
      000000CEH   SFRSYM    DATA     BYTE      SPCTL
      000000F8H   SFRSYM    DATA     BYTE      P7
      000000E8H   SFRSYM    DATA     BYTE      P6
      000000C8H   SFRSYM    DATA     BYTE      P5
      000000C0H   SFRSYM    DATA     BYTE      P4
      000000ABH   SFRSYM    DATA     BYTE      WKTCH
      000000B0H   SFRSYM    DATA     BYTE      P3
      000000A0H   SFRSYM    DATA     BYTE      P2
      00000090H   SFRSYM    DATA     BYTE      P1
      00000080H   SFRSYM    DATA     BYTE      P0

      00FF019EH   BLOCK     CODE     ---       LVL=0
      00FF019EH   LINE      CODE     ---       #49
      00FF019EH   LINE      CODE     ---       #52
L251 LINKER/LOCATER V4.66.93.0                                                        06/12/2025  20:04:03  PAGE 105


      00FF01A1H   LINE      CODE     ---       #54
      00FF01A8H   LINE      CODE     ---       #55
      ---         BLOCKEND  ---      ---       LVL=0

      00FF2F17H   BLOCK     CODE     ---       LVL=0
      00FF2F17H   LINE      CODE     ---       #63
      00FF2F17H   LINE      CODE     ---       #65
      00FF2F4DH   LINE      CODE     ---       #67
      00FF2F4DH   LINE      CODE     ---       #68
      00FF2F61H   LINE      CODE     ---       #69
      00FF2F75H   LINE      CODE     ---       #70
      00FF2F78H   LINE      CODE     ---       #71
      00FF2F78H   LINE      CODE     ---       #72
      00FF2F8CH   LINE      CODE     ---       #73
      00FF2FA0H   LINE      CODE     ---       #74
      00FF2FB4H   LINE      CODE     ---       #75
      00FF2FC8H   LINE      CODE     ---       #76
      00FF2FDCH   LINE      CODE     ---       #77
      00FF2FF0H   LINE      CODE     ---       #78
      00FF3004H   LINE      CODE     ---       #79
      00FF3018H   LINE      CODE     ---       #80
      00FF301BH   LINE      CODE     ---       #81
      00FF301BH   LINE      CODE     ---       #82
      00FF302FH   LINE      CODE     ---       #83
      00FF3043H   LINE      CODE     ---       #84
      00FF3057H   LINE      CODE     ---       #85
      00FF306BH   LINE      CODE     ---       #86
      00FF307FH   LINE      CODE     ---       #87
      00FF3093H   LINE      CODE     ---       #88
      00FF30A7H   LINE      CODE     ---       #89
      00FF30BBH   LINE      CODE     ---       #90
      00FF30BEH   LINE      CODE     ---       #91
      00FF30BEH   LINE      CODE     ---       #92
      00FF30D2H   LINE      CODE     ---       #93
      00FF30E6H   LINE      CODE     ---       #94
      00FF30FAH   LINE      CODE     ---       #95
      00FF310EH   LINE      CODE     ---       #96
      00FF3122H   LINE      CODE     ---       #97
      00FF3136H   LINE      CODE     ---       #98
      00FF314AH   LINE      CODE     ---       #99
      00FF315EH   LINE      CODE     ---       #100
      00FF3161H   LINE      CODE     ---       #101
      00FF3161H   LINE      CODE     ---       #102
      00FF3175H   LINE      CODE     ---       #103
      00FF3189H   LINE      CODE     ---       #104
      00FF319DH   LINE      CODE     ---       #105
      00FF31B1H   LINE      CODE     ---       #106
      00FF31C5H   LINE      CODE     ---       #107
      00FF31D9H   LINE      CODE     ---       #108
      00FF31EDH   LINE      CODE     ---       #109
      00FF3201H   LINE      CODE     ---       #110
      00FF3203H   LINE      CODE     ---       #111
      00FF3203H   LINE      CODE     ---       #112
      00FF3206H   LINE      CODE     ---       #113
      00FF3212H   LINE      CODE     ---       #114
      00FF3214H   LINE      CODE     ---       #115
      00FF3214H   LINE      CODE     ---       #116
      00FF3220H   LINE      CODE     ---       #117
      00FF3220H   LINE      CODE     ---       #118
      00FF3220H   LINE      CODE     ---       #119
      00FF3258H   LINE      CODE     ---       #121
      00FF3258H   LINE      CODE     ---       #122
      00FF32B7H   LINE      CODE     ---       #123
      00FF32BAH   LINE      CODE     ---       #124
      00FF32BAH   LINE      CODE     ---       #125
L251 LINKER/LOCATER V4.66.93.0                                                        06/12/2025  20:04:03  PAGE 106


      00FF3305H   LINE      CODE     ---       #126
      00FF3308H   LINE      CODE     ---       #127
      00FF3308H   LINE      CODE     ---       #128
      00FF3353H   LINE      CODE     ---       #129
      00FF3356H   LINE      CODE     ---       #130
      00FF3356H   LINE      CODE     ---       #131
      00FF33A1H   LINE      CODE     ---       #132
      00FF33A4H   LINE      CODE     ---       #133
      00FF33A4H   LINE      CODE     ---       #134
      00FF33EFH   LINE      CODE     ---       #135
      00FF33F2H   LINE      CODE     ---       #136
      00FF33F2H   LINE      CODE     ---       #137
      00FF3455H   LINE      CODE     ---       #139
      00FF3458H   LINE      CODE     ---       #140
      00FF345BH   LINE      CODE     ---       #141
      00FF345BH   LINE      CODE     ---       #142
      00FF34FAH   LINE      CODE     ---       #144
      00FF34FDH   LINE      CODE     ---       #145
      00FF34FFH   LINE      CODE     ---       #146
      00FF34FFH   LINE      CODE     ---       #147
      00FF355EH   LINE      CODE     ---       #149
      00FF3561H   LINE      CODE     ---       #150
      00FF3563H   LINE      CODE     ---       #151
      00FF3563H   LINE      CODE     ---       #152
      00FF356FH   LINE      CODE     ---       #153
      00FF356FH   LINE      CODE     ---       #154
      00FF356FH   LINE      CODE     ---       #155
      ---         BLOCKEND  ---      ---       LVL=0

      00FFD0E6H   BLOCK     CODE     ---       LVL=0
      00012EF4H   SYMBOL    XDATA    BYTE      i
      00FFD0E6H   LINE      CODE     ---       #163
      00FFD0E6H   LINE      CODE     ---       #164
      00FFD0E6H   LINE      CODE     ---       #166
      00FFD0ECH   LINE      CODE     ---       #167
      00FFD0EFH   LINE      CODE     ---       #169
      00FFD0FAH   LINE      CODE     ---       #171
      00FFD101H   LINE      CODE     ---       #173
      00FFD131H   LINE      CODE     ---       #174
      00FFD140H   LINE      CODE     ---       #175
      00FFD14BH   LINE      CODE     ---       #176
      00FFD14EH   LINE      CODE     ---       #182
      ---         BLOCKEND  ---      ---       LVL=0

      00FFE172H   BLOCK     CODE     ---       LVL=0
      00FFE172H   LINE      CODE     ---       #191
      00FFE172H   LINE      CODE     ---       #193
      00FFE180H   LINE      CODE     ---       #194
      00FFE190H   LINE      CODE     ---       #196
      00FFE195H   LINE      CODE     ---       #197
      00FFE19CH   LINE      CODE     ---       #198
      ---         BLOCKEND  ---      ---       LVL=0

      00FFDAE4H   BLOCK     CODE     ---       LVL=0
      00FFDAE4H   LINE      CODE     ---       #199
      00FFDAE4H   LINE      CODE     ---       #201
      00FFDAF1H   LINE      CODE     ---       #202
      00FFDB00H   LINE      CODE     ---       #204
      00FFDB0AH   LINE      CODE     ---       #206
      00FFDB2FH   LINE      CODE     ---       #207
      ---         BLOCKEND  ---      ---       LVL=0

      00FFDC03H   BLOCK     CODE     ---       LVL=0
      00FFDC03H   LINE      CODE     ---       #215
      00FFDC03H   LINE      CODE     ---       #217
L251 LINKER/LOCATER V4.66.93.0                                                        06/12/2025  20:04:03  PAGE 107


      00FFDC09H   LINE      CODE     ---       #218
      00FFDC26H   LINE      CODE     ---       #219
      00FFDC43H   LINE      CODE     ---       #220
      ---         BLOCKEND  ---      ---       LVL=0

      00FFD4D9H   BLOCK     CODE     ---       LVL=0
      00FFD4D9H   LINE      CODE     ---       #229
      00FFD4D9H   LINE      CODE     ---       #231
      00FFD4F8H   LINE      CODE     ---       #232
      00FFD507H   LINE      CODE     ---       #233
      00FFD526H   LINE      CODE     ---       #234
      00FFD537H   LINE      CODE     ---       #235
      ---         BLOCKEND  ---      ---       LVL=0

      00FFE19DH   BLOCK     CODE     ---       LVL=0
      00012EE6H   SYMBOL    XDATA    WORD      time
      00FFE19DH   LINE      CODE     ---       #244
      00FFE1A3H   LINE      CODE     ---       #246
      00FFE1ACH   LINE      CODE     ---       #247
      00FFE1B5H   LINE      CODE     ---       #248
      00FFE1BDH   LINE      CODE     ---       #249
      00FFE1C6H   LINE      CODE     ---       #250
      ---         BLOCKEND  ---      ---       LVL=0

      00FFDF8AH   BLOCK     CODE     ---       LVL=0
      00FFDF8AH   LINE      CODE     ---       #283
      00FFDF8AH   LINE      CODE     ---       #285
      00FFDF93H   LINE      CODE     ---       #286
      00FFDF9AH   LINE      CODE     ---       #287
      00FFDFA3H   LINE      CODE     ---       #288
      00FFDFACH   LINE      CODE     ---       #289
      00FFDFB5H   LINE      CODE     ---       #290
      00FFDFBEH   LINE      CODE     ---       #291
      ---         BLOCKEND  ---      ---       LVL=0

      00FFCC91H   BLOCK     CODE     ---       LVL=0
      00FFCC91H   LINE      CODE     ---       #299
      00FFCC91H   LINE      CODE     ---       #301
      00FFCCA8H   LINE      CODE     ---       #302
      00FFCCBDH   LINE      CODE     ---       #303
      00FFCCD4H   LINE      CODE     ---       #304
      00FFCCEBH   LINE      CODE     ---       #305
      00FFCD02H   LINE      CODE     ---       #306
      00FFCD19H   LINE      CODE     ---       #308
      ---         BLOCKEND  ---      ---       LVL=0

      00FFA9EDH   BLOCK     CODE     ---       LVL=0
      00FFA9EDH   LINE      CODE     ---       #316
      00FFA9EDH   LINE      CODE     ---       #318
      00FFAA14H   LINE      CODE     ---       #319
      00FFAA23H   LINE      CODE     ---       #320
      00FFAA4AH   LINE      CODE     ---       #321
      00FFAA5BH   LINE      CODE     ---       #322
      00FFAA82H   LINE      CODE     ---       #323
      00FFAA93H   LINE      CODE     ---       #324
      00FFAABAH   LINE      CODE     ---       #325
      00FFAACBH   LINE      CODE     ---       #326
      00FFAAF2H   LINE      CODE     ---       #327
      00FFAB03H   LINE      CODE     ---       #328
      00FFAB2AH   LINE      CODE     ---       #329
      00FFAB3BH   LINE      CODE     ---       #330
      00FFAB62H   LINE      CODE     ---       #331
      00FFAB73H   LINE      CODE     ---       #332
      ---         BLOCKEND  ---      ---       LVL=0

L251 LINKER/LOCATER V4.66.93.0                                                        06/12/2025  20:04:03  PAGE 108


      00FFD5F2H   BLOCK     CODE     ---       LVL=0
      000122ABH   SYMBOL    XDATA    INT       uart_n
      000122ADH   SYMBOL    XDATA    ---       format
      00FFD602H   BLOCK     CODE     NEAR LAB  LVL=1
      000122B1H   SYMBOL    XDATA    ---       buffer
      000123B1H   SYMBOL    XDATA    ---       args
      ---         BLOCKEND  ---      ---       LVL=1
      00FFD5F2H   LINE      CODE     ---       #354
      00FFD602H   LINE      CODE     ---       #355
      00FFD602H   LINE      CODE     ---       #358
      00FFD614H   LINE      CODE     ---       #359
      00FFD63DH   LINE      CODE     ---       #360
      00FFD64EH   LINE      CODE     ---       #361
      00FFD64EH   LINE      CODE     ---       #362
      ---         BLOCKEND  ---      ---       LVL=0

      00FFCE2AH   BLOCK     CODE     ---       LVL=0
      00012EF5H   SYMBOL    XDATA    BYTE      data_len
      00FFCE2AH   LINE      CODE     ---       #370
      00FFCE2AH   LINE      CODE     ---       #371
      00FFCE2AH   LINE      CODE     ---       #372
      00FFCE2FH   LINE      CODE     ---       #373
      00FFCE48H   LINE      CODE     ---       #374
      00FFCE5DH   LINE      CODE     ---       #375
      00FFCE66H   LINE      CODE     ---       #377
      00FFCE81H   LINE      CODE     ---       #378
      00FFCEA2H   LINE      CODE     ---       #379
      00FFCEA2H   LINE      CODE     ---       #380
      00FFCEA9H   LINE      CODE     ---       #381
      ---         BLOCKEND  ---      ---       LVL=0

      00FFD595H   BLOCK     CODE     ---       LVL=0
      00FFD595H   LINE      CODE     ---       #389
      00FFD595H   LINE      CODE     ---       #391
      00FFD5B7H   LINE      CODE     ---       #397
      00FFD5DEH   LINE      CODE     ---       #399
      00FFD5F1H   LINE      CODE     ---       #400
      ---         BLOCKEND  ---      ---       LVL=0

      00FF8EDBH   BLOCK     CODE     ---       LVL=0
      00012E9AH   SYMBOL    XDATA    DWORD     hex_value
      00FF8EDBH   LINE      CODE     ---       #407
      00FF8EDBH   LINE      CODE     ---       #408
      00FF8EDBH   LINE      CODE     ---       #411
      00FF8EF2H   LINE      CODE     ---       #412
      00FF8F02H   LINE      CODE     ---       #413
      00FF8F12H   LINE      CODE     ---       #414
      00FF8F20H   LINE      CODE     ---       #416
      00FF8F37H   LINE      CODE     ---       #417
      00FF8F47H   LINE      CODE     ---       #418
      00FF8F57H   LINE      CODE     ---       #419
      00FF8F65H   LINE      CODE     ---       #421
      00FF8F7CH   LINE      CODE     ---       #422
      00FF8F8CH   LINE      CODE     ---       #423
      00FF8F9CH   LINE      CODE     ---       #424
      00FF8FAAH   LINE      CODE     ---       #426
      00FF8FC1H   LINE      CODE     ---       #427
      00FF8FD1H   LINE      CODE     ---       #428
      00FF8FE1H   LINE      CODE     ---       #429
      00FF8FEFH   LINE      CODE     ---       #432
      00FF9006H   LINE      CODE     ---       #433
      00FF9016H   LINE      CODE     ---       #434
      00FF9026H   LINE      CODE     ---       #435
      00FF9034H   LINE      CODE     ---       #437
      00FF904BH   LINE      CODE     ---       #438
L251 LINKER/LOCATER V4.66.93.0                                                        06/12/2025  20:04:03  PAGE 109


      00FF905BH   LINE      CODE     ---       #439
      00FF906BH   LINE      CODE     ---       #440
      00FF9079H   LINE      CODE     ---       #442
      00FF9090H   LINE      CODE     ---       #443
      00FF90A0H   LINE      CODE     ---       #444
      00FF90B0H   LINE      CODE     ---       #445
      00FF90BEH   LINE      CODE     ---       #447
      00FF90D5H   LINE      CODE     ---       #448
      00FF90E5H   LINE      CODE     ---       #449
      00FF90F5H   LINE      CODE     ---       #450
      00FF9103H   LINE      CODE     ---       #452
      00FF911CH   LINE      CODE     ---       #453
      ---         BLOCKEND  ---      ---       LVL=0

      00FF8582H   BLOCK     CODE     ---       LVL=0
      00012CF0H   SYMBOL    XDATA    BYTE      i
      00012CF1H   SYMBOL    XDATA    FLOAT     temp_value
      00012CF5H   SYMBOL    XDATA    DWORD     hex_value
      00FF8582H   LINE      CODE     ---       #462
      00FF8582H   LINE      CODE     ---       #463
      00FF8582H   LINE      CODE     ---       #469
      00FF858AH   LINE      CODE     ---       #471
      00FF85A7H   LINE      CODE     ---       #472
      00FF85C5H   LINE      CODE     ---       #473
      00FF85E3H   LINE      CODE     ---       #474
      00FF8601H   LINE      CODE     ---       #475
      00FF861FH   LINE      CODE     ---       #476
      00FF863DH   LINE      CODE     ---       #477
      00FF865BH   LINE      CODE     ---       #478
      00FF8679H   LINE      CODE     ---       #479
      00FF8697H   LINE      CODE     ---       #480
      00FF86B4H   LINE      CODE     ---       #481
      00FF86D1H   LINE      CODE     ---       #482
      00FF86EEH   LINE      CODE     ---       #484
      00FF8703H   LINE      CODE     ---       #485
      00FF8718H   LINE      CODE     ---       #486
      00FF872BH   LINE      CODE     ---       #489
      00FF874DH   LINE      CODE     ---       #492
      00FF876EH   LINE      CODE     ---       #493
      00FF8791H   LINE      CODE     ---       #494
      00FF87B4H   LINE      CODE     ---       #495
      00FF87C6H   LINE      CODE     ---       #496
      00FF87CBH   LINE      CODE     ---       #499
      00FF87E2H   LINE      CODE     ---       #500
      ---         BLOCKEND  ---      ---       LVL=0

      00FF7DF5H   BLOCK     CODE     ---       LVL=0
      00012E9EH   SYMBOL    XDATA    DWORD     hex_value
      00FF7DF5H   LINE      CODE     ---       #510
      00FF7DF5H   LINE      CODE     ---       #511
      00FF7DF5H   LINE      CODE     ---       #515
      00FF7E0EH   LINE      CODE     ---       #518
      00FF7E44H   LINE      CODE     ---       #521
      00FF7E5CH   LINE      CODE     ---       #523
      00FF7E92H   LINE      CODE     ---       #526
      00FF7EAAH   LINE      CODE     ---       #528
      00FF7EE0H   LINE      CODE     ---       #531
      00FF7EF8H   LINE      CODE     ---       #533
      00FF7F2EH   LINE      CODE     ---       #536
      00FF7F46H   LINE      CODE     ---       #539
      00FF7F7CH   LINE      CODE     ---       #542
      00FF7F94H   LINE      CODE     ---       #544
      00FF7FCAH   LINE      CODE     ---       #547
      00FF7FE2H   LINE      CODE     ---       #549
      00FF8018H   LINE      CODE     ---       #552
L251 LINKER/LOCATER V4.66.93.0                                                        06/12/2025  20:04:03  PAGE 110


      00FF8030H   LINE      CODE     ---       #554
      00FF8066H   LINE      CODE     ---       #557
      00FF807EH   LINE      CODE     ---       #558
      ---         BLOCKEND  ---      ---       LVL=0

      00FF0003H   BLOCK     CODE     ---       LVL=0
      00FF0003H   LINE      CODE     ---       #567
      00FF0003H   LINE      CODE     ---       #570
      00FF000AH   LINE      CODE     ---       #585
      ---         BLOCKEND  ---      ---       LVL=0

      00FF8C8DH   BLOCK     CODE     ---       LVL=0
      00012CF9H   SYMBOL    XDATA    BYTE      i
      00012CFAH   SYMBOL    XDATA    FLOAT     temp_value
      00012CFEH   SYMBOL    XDATA    DWORD     hex_value
      00FF8C8DH   LINE      CODE     ---       #593
      00FF8C8DH   LINE      CODE     ---       #594
      00FF8C8DH   LINE      CODE     ---       #599
      00FF8C90H   LINE      CODE     ---       #600
      00FF8CA7H   LINE      CODE     ---       #601
      00FF8CADH   LINE      CODE     ---       #604
      00FF8CB4H   LINE      CODE     ---       #605
      00FF8CB7H   LINE      CODE     ---       #606
      00FF8CBAH   LINE      CODE     ---       #607
      00FF8CD1H   LINE      CODE     ---       #610
      00FF8CD1H   LINE      CODE     ---       #612
      00FF8CD4H   LINE      CODE     ---       #616
      00FF8CDCH   LINE      CODE     ---       #618
      00FF8D45H   LINE      CODE     ---       #623
      00FF8D68H   LINE      CODE     ---       #626
      00FF8D85H   LINE      CODE     ---       #627
      00FF8DA3H   LINE      CODE     ---       #628
      00FF8DC1H   LINE      CODE     ---       #629
      00FF8DDFH   LINE      CODE     ---       #630
      00FF8DFDH   LINE      CODE     ---       #631
      00FF8E1BH   LINE      CODE     ---       #632
      00FF8E39H   LINE      CODE     ---       #633
      00FF8E56H   LINE      CODE     ---       #634
      00FF8E73H   LINE      CODE     ---       #635
      00FF8E90H   LINE      CODE     ---       #636
      00FF8EADH   LINE      CODE     ---       #637
      00FF8EC8H   LINE      CODE     ---       #639
      00FF8EDAH   LINE      CODE     ---       #640
      ---         BLOCKEND  ---      ---       LVL=0

      00FFBF37H   BLOCK     CODE     ---       LVL=0
      00FFBF37H   LINE      CODE     ---       #649
      00FFBF37H   LINE      CODE     ---       #651
      00FFBF3AH   LINE      CODE     ---       #652
      00FFBF3DH   LINE      CODE     ---       #653
      00FFBF40H   LINE      CODE     ---       #654
      00FFBF43H   LINE      CODE     ---       #655
      00FFBF46H   LINE      CODE     ---       #656
      00FFBF56H   LINE      CODE     ---       #657
      00FFBF65H   LINE      CODE     ---       #658
      00FFBF68H   LINE      CODE     ---       #659
      00FFBF6AH   LINE      CODE     ---       #661
      00FFBF71H   LINE      CODE     ---       #662
      00FFBF7CH   LINE      CODE     ---       #663
      00FFBF81H   LINE      CODE     ---       #664
      00FFBF84H   LINE      CODE     ---       #665
      00FFBF87H   LINE      CODE     ---       #666
      00FFBF8EH   LINE      CODE     ---       #668
      00FFBF91H   LINE      CODE     ---       #670
      00FFBF94H   LINE      CODE     ---       #672
L251 LINKER/LOCATER V4.66.93.0                                                        06/12/2025  20:04:03  PAGE 111


      00FFBF97H   LINE      CODE     ---       #673
      00FFBF9AH   LINE      CODE     ---       #674
      00FFBF9DH   LINE      CODE     ---       #677
      00FFBFBBH   LINE      CODE     ---       #678
      00FFBFC5H   LINE      CODE     ---       #679
      00FFBFEAH   LINE      CODE     ---       #680
      00FFBFF4H   LINE      CODE     ---       #682
      ---         BLOCKEND  ---      ---       LVL=0

      ---         MODULE    ---      ---       key
      00FF807FH   PUBLIC    CODE     ---       button_entry
      00FFDB77H   PUBLIC    CODE     ---       key_into
      00FFC6CFH   PUBLIC    CODE     ---       key_text
      000128F1H   PUBLIC    XDATA    BYTE      key1_state
      000128F2H   PUBLIC    XDATA    BYTE      key2_state
      000128F3H   PUBLIC    XDATA    BYTE      key3_state
      000128F4H   PUBLIC    XDATA    BYTE      key4_state
      000128F5H   PUBLIC    XDATA    BYTE      key5_state
      000128F6H   PUBLIC    XDATA    BYTE      key1_count
      000128F7H   PUBLIC    XDATA    BYTE      key2_count
      000128F8H   PUBLIC    XDATA    BYTE      key3_count
      000128F9H   PUBLIC    XDATA    BYTE      key4_count
      000128FAH   PUBLIC    XDATA    BYTE      key5_count
      000128FBH   PUBLIC    XDATA    BYTE      key1_state_last
      000128FCH   PUBLIC    XDATA    BYTE      key2_state_last
      000128FDH   PUBLIC    XDATA    BYTE      key3_state_last
      000128FEH   PUBLIC    XDATA    BYTE      key4_state_last
      000128FFH   PUBLIC    XDATA    BYTE      key5_state_last
      00012900H   PUBLIC    XDATA    BYTE      button1
      00012901H   PUBLIC    XDATA    BYTE      button2
      00012902H   PUBLIC    XDATA    BYTE      button3
      00012903H   PUBLIC    XDATA    BYTE      button4
      00012904H   PUBLIC    XDATA    BYTE      button5
      00012905H   PUBLIC    XDATA    BYTE      key1_flag
      00012906H   PUBLIC    XDATA    BYTE      key2_flag
      00012907H   PUBLIC    XDATA    BYTE      key3_flag
      00012908H   PUBLIC    XDATA    BYTE      key4_flag
      00012909H   PUBLIC    XDATA    BYTE      key5_flag
      000000D0H   SFRSYM    DATA     BYTE      PSW
      0000009DH   SFRSYM    DATA     BYTE      IRCBAND
      00000097H   SFRSYM    DATA     BYTE      AUXR2
      000000EFH   SFRSYM    DATA     BYTE      AUXINTIF
      000000FDH   SFRSYM    DATA     BYTE      S4CON
      000000ACH   SFRSYM    DATA     BYTE      S3CON
      0000009AH   SFRSYM    DATA     BYTE      S2CON
      000000B7H   SFRSYM    DATA     BYTE      IPH
      000000CDH   SFRSYM    DATA     BYTE      SPSTAT
      000000DDH   SFRSYM    DATA     BYTE      T4T3M
      000000C1H   SFRSYM    DATA     BYTE      WDT_CONTR
      000000DFH   SFRSYM    DATA     BYTE      IP3
      000000F4H   SFRSYM    DATA     BYTE      USBCON
      000000B5H   SFRSYM    DATA     BYTE      IP2
      000000FFH   SFRSYM    DATA     BYTE      RSTCFG
      000000C7H   SFRSYM    DATA     BYTE      IAP_CONTR
      0000008EH   SFRSYM    DATA     BYTE      AUXR
      000000AFH   SFRSYM    DATA     BYTE      IE2
      00000088H   SFRSYM    DATA     BYTE      TCON
      00000089H   SFRSYM    DATA     BYTE      TMOD
      00000098H   SFRSYM    DATA     BYTE      SCON
      00000087H   SFRSYM    DATA     BYTE      PCON
      000000BCH   SFRSYM    DATA     BYTE      ADC_CONTR
      000000D1H   SFRSYM    DATA     BYTE      PSW1
      000000E7H   SFRSYM    DATA     BYTE      CMPCR2
      000000E6H   SFRSYM    DATA     BYTE      CMPCR1
      000000DEH   SFRSYM    DATA     BYTE      ADCCFG
L251 LINKER/LOCATER V4.66.93.0                                                        06/12/2025  20:04:03  PAGE 112


      000000B8H   SFRSYM    DATA     BYTE      IP
      0000008FH   SFRSYM    DATA     BYTE      INTCLKO
      000000EEH   SFRSYM    DATA     BYTE      IP3H
      000000B6H   SFRSYM    DATA     BYTE      IP2H
      000000BFH   SFRSYM    DATA     BYTE      P_SW4
      000000A8H   SFRSYM    DATA     BYTE      IE
      000000BBH   SFRSYM    DATA     BYTE      P_SW3
      000000BAH   SFRSYM    DATA     BYTE      P_SW2
      000000A2H   SFRSYM    DATA     BYTE      P_SW1
      000000CEH   SFRSYM    DATA     BYTE      SPCTL
      000000F8H   SFRSYM    DATA     BYTE      P7
      000000E8H   SFRSYM    DATA     BYTE      P6
      000000C8H   SFRSYM    DATA     BYTE      P5
      000000C0H   SFRSYM    DATA     BYTE      P4
      000000ABH   SFRSYM    DATA     BYTE      WKTCH
      000000B0H   SFRSYM    DATA     BYTE      P3
      000000A0H   SFRSYM    DATA     BYTE      P2
      00000090H   SFRSYM    DATA     BYTE      P1
      00000080H   SFRSYM    DATA     BYTE      P0

      00FF807FH   BLOCK     CODE     ---       LVL=0
      00012EF6H   SYMBOL    XDATA    BYTE      i
      0001290AH   SYMBOL    XDATA    BYTE      long_press_cnt
      0001290BH   SYMBOL    XDATA    BYTE      long_press_button
      0001290CH   SYMBOL    XDATA    ---       debounce_counter
      00FF807FH   LINE      CODE     ---       #106
      00FF807FH   LINE      CODE     ---       #107
      00FF807FH   LINE      CODE     ---       #119
      00FF8087H   LINE      CODE     ---       #120
      00FF808FH   LINE      CODE     ---       #121
      00FF8097H   LINE      CODE     ---       #122
      00FF809FH   LINE      CODE     ---       #123
      00FF80A7H   LINE      CODE     ---       #126
      00FF80B2H   LINE      CODE     ---       #127
      00FF80BDH   LINE      CODE     ---       #128
      00FF80C8H   LINE      CODE     ---       #129
      00FF80D3H   LINE      CODE     ---       #130
      00FF80DEH   LINE      CODE     ---       #136
      00FF80E4H   LINE      CODE     ---       #138
      00FF80EAH   LINE      CODE     ---       #139
      00FF80FFH   LINE      CODE     ---       #140
      00FF8111H   LINE      CODE     ---       #141
      00FF8114H   LINE      CODE     ---       #142
      00FF811AH   LINE      CODE     ---       #144
      00FF8120H   LINE      CODE     ---       #145
      00FF8135H   LINE      CODE     ---       #146
      00FF8147H   LINE      CODE     ---       #147
      00FF814AH   LINE      CODE     ---       #148
      00FF8150H   LINE      CODE     ---       #150
      00FF8156H   LINE      CODE     ---       #151
      00FF816BH   LINE      CODE     ---       #152
      00FF817AH   LINE      CODE     ---       #153
      00FF817CH   LINE      CODE     ---       #154
      00FF8182H   LINE      CODE     ---       #156
      00FF8188H   LINE      CODE     ---       #157
      00FF819DH   LINE      CODE     ---       #158
      00FF81ACH   LINE      CODE     ---       #159
      00FF81AEH   LINE      CODE     ---       #160
      00FF81B4H   LINE      CODE     ---       #162
      00FF81BAH   LINE      CODE     ---       #163
      00FF81CFH   LINE      CODE     ---       #164
      00FF81DEH   LINE      CODE     ---       #165
      00FF81E0H   LINE      CODE     ---       #168
      00FF81E5H   LINE      CODE     ---       #169
      00FF81EAH   LINE      CODE     ---       #170
L251 LINKER/LOCATER V4.66.93.0                                                        06/12/2025  20:04:03  PAGE 113


      00FF81EAH   LINE      CODE     ---       #173
      00FF8203H   LINE      CODE     ---       #176
      00FF8216H   LINE      CODE     ---       #178
      00FF821CH   LINE      CODE     ---       #183
      00FF8222H   LINE      CODE     ---       #185
      00FF8228H   LINE      CODE     ---       #186
      00FF8228H   LINE      CODE     ---       #189
      00FF823BH   LINE      CODE     ---       #191
      00FF8241H   LINE      CODE     ---       #196
      00FF8247H   LINE      CODE     ---       #198
      00FF824DH   LINE      CODE     ---       #199
      00FF824DH   LINE      CODE     ---       #202
      00FF8260H   LINE      CODE     ---       #204
      00FF8266H   LINE      CODE     ---       #209
      00FF826CH   LINE      CODE     ---       #211
      00FF8272H   LINE      CODE     ---       #212
      00FF8272H   LINE      CODE     ---       #215
      00FF8285H   LINE      CODE     ---       #217
      00FF828BH   LINE      CODE     ---       #222
      00FF8291H   LINE      CODE     ---       #224
      00FF8297H   LINE      CODE     ---       #225
      00FF8297H   LINE      CODE     ---       #228
      00FF82AAH   LINE      CODE     ---       #230
      00FF82B0H   LINE      CODE     ---       #235
      00FF82B6H   LINE      CODE     ---       #237
      00FF82BCH   LINE      CODE     ---       #238
      00FF82BCH   LINE      CODE     ---       #242
      00FF82C3H   LINE      CODE     ---       #243
      00FF82D9H   LINE      CODE     ---       #244
      00FF82F2H   LINE      CODE     ---       #245
      00FF8301H   LINE      CODE     ---       #254
      ---         BLOCKEND  ---      ---       LVL=0

      00FFDB77H   BLOCK     CODE     ---       LVL=0
      00FFDB77H   LINE      CODE     ---       #256
      00FFDB77H   LINE      CODE     ---       #259
      00FFDB85H   LINE      CODE     ---       #260
      00FFDB93H   LINE      CODE     ---       #261
      00FFDBA1H   LINE      CODE     ---       #262
      00FFDBAFH   LINE      CODE     ---       #263
      00FFDBBDH   LINE      CODE     ---       #264
      ---         BLOCKEND  ---      ---       LVL=0

      00FFC6CFH   BLOCK     CODE     ---       LVL=0
      00FFC6CFH   LINE      CODE     ---       #265
      00FFC6CFH   LINE      CODE     ---       #267
      00FFC6D2H   LINE      CODE     ---       #268
      00FFC6EEH   LINE      CODE     ---       #269
      00FFC70EH   LINE      CODE     ---       #270
      00FFC72EH   LINE      CODE     ---       #271
      00FFC74EH   LINE      CODE     ---       #272
      00FFC76EH   LINE      CODE     ---       #273
      ---         BLOCKEND  ---      ---       LVL=0

      ---         MODULE    ---      ---       menu
      00FFE0BCH   PUBLIC    CODE     ---       function_image_path_test
      00FF6637H   PUBLIC    CODE     ---       function_right_motor_pid_setting
      00FF911DH   PUBLIC    CODE     ---       menu_process_buttons
      00FF6FCFH   PUBLIC    CODE     ---       function_left_motor_pid_setting
      00FF9590H   PUBLIC    CODE     ---       function_reset_pid
      00FF99FFH   PUBLIC    CODE     ---       menu_display
      00FFDF1EH   PUBLIC    CODE     ---       function_buzzer_test
      00FFDEADH   PUBLIC    CODE     ---       function_adc_test
      00FFDC44H   PUBLIC    CODE     ---       function_inductance_max_min_setting
      00FFCEAAH   PUBLIC    CODE     ---       seekfree_assistant_open
L251 LINKER/LOCATER V4.66.93.0                                                        06/12/2025  20:04:03  PAGE 114


      00FFDFBFH   PUBLIC    CODE     ---       function_uart_printf_test
      00FFDFF2H   PUBLIC    CODE     ---       function_key_test
      00FFE025H   PUBLIC    CODE     ---       function_imu_test
      00FFBBD0H   PUBLIC    CODE     ---       function_speed_setting
      00FF6979H   PUBLIC    CODE     ---       function_angle_speed_pid_setting
      00FF3570H   PUBLIC    CODE     ---       menu_init
      00FFE058H   PUBLIC    CODE     ---       function_encoder_test
      00FF6CA4H   PUBLIC    CODE     ---       function_angle_pid_setting
      00FFC58AH   PUBLIC    CODE     ---       function_sensor_calibration
      00FF9DF8H   PUBLIC    CODE     ---       function_inductance_max_min_show
      00FF9FE5H   PUBLIC    CODE     ---       menu_run
      00FFDDF9H   PUBLIC    CODE     ---       function_dummy
      00010FD0H   PUBLIC    XDATA    INT       speed_value
      00010FD2H   PUBLIC    XDATA    ---       menu_pages
      00011DF7H   PUBLIC    XDATA    ---       menu_state
      00011E00H   PUBLIC    XDATA    BYTE      seekfree_flag
      00011E01H   PUBLIC    XDATA    BYTE      inductance_max_min_flag
      000000D0H   SFRSYM    DATA     BYTE      PSW
      0000009DH   SFRSYM    DATA     BYTE      IRCBAND
      00000097H   SFRSYM    DATA     BYTE      AUXR2
      000000EFH   SFRSYM    DATA     BYTE      AUXINTIF
      000000FDH   SFRSYM    DATA     BYTE      S4CON
      000000ACH   SFRSYM    DATA     BYTE      S3CON
      0000009AH   SFRSYM    DATA     BYTE      S2CON
      000000B7H   SFRSYM    DATA     BYTE      IPH
      000000CDH   SFRSYM    DATA     BYTE      SPSTAT
      000000DDH   SFRSYM    DATA     BYTE      T4T3M
      000000C1H   SFRSYM    DATA     BYTE      WDT_CONTR
      000000DFH   SFRSYM    DATA     BYTE      IP3
      000000F4H   SFRSYM    DATA     BYTE      USBCON
      000000B5H   SFRSYM    DATA     BYTE      IP2
      000000FFH   SFRSYM    DATA     BYTE      RSTCFG
      000000C7H   SFRSYM    DATA     BYTE      IAP_CONTR
      0000008EH   SFRSYM    DATA     BYTE      AUXR
      000000AFH   SFRSYM    DATA     BYTE      IE2
      00000088H   SFRSYM    DATA     BYTE      TCON
      00000089H   SFRSYM    DATA     BYTE      TMOD
      00000098H   SFRSYM    DATA     BYTE      SCON
      00000087H   SFRSYM    DATA     BYTE      PCON
      000000BCH   SFRSYM    DATA     BYTE      ADC_CONTR
      000000D1H   SFRSYM    DATA     BYTE      PSW1
      000000E7H   SFRSYM    DATA     BYTE      CMPCR2
      000000E6H   SFRSYM    DATA     BYTE      CMPCR1
      000000DEH   SFRSYM    DATA     BYTE      ADCCFG
      000000B8H   SFRSYM    DATA     BYTE      IP
      0000008FH   SFRSYM    DATA     BYTE      INTCLKO
      000000EEH   SFRSYM    DATA     BYTE      IP3H
      000000B6H   SFRSYM    DATA     BYTE      IP2H
      000000BFH   SFRSYM    DATA     BYTE      P_SW4
      000000A8H   SFRSYM    DATA     BYTE      IE
      000000BBH   SFRSYM    DATA     BYTE      P_SW3
      000000BAH   SFRSYM    DATA     BYTE      P_SW2
      000000A2H   SFRSYM    DATA     BYTE      P_SW1
      000000CEH   SFRSYM    DATA     BYTE      SPCTL
      000000F8H   SFRSYM    DATA     BYTE      P7
      000000E8H   SFRSYM    DATA     BYTE      P6
      000000C8H   SFRSYM    DATA     BYTE      P5
      000000C0H   SFRSYM    DATA     BYTE      P4
      000000ABH   SFRSYM    DATA     BYTE      WKTCH
      000000B0H   SFRSYM    DATA     BYTE      P3
      000000A0H   SFRSYM    DATA     BYTE      P2
      00000090H   SFRSYM    DATA     BYTE      P1
      00000080H   SFRSYM    DATA     BYTE      P0

      00FFCEAAH   BLOCK     CODE     ---       LVL=0
L251 LINKER/LOCATER V4.66.93.0                                                        06/12/2025  20:04:03  PAGE 115


      00012EF7H   SYMBOL    XDATA    BYTE      exit_flag
      00FFCEAAH   LINE      CODE     ---       #35
      00FFCEAAH   LINE      CODE     ---       #36
      00FFCEAAH   LINE      CODE     ---       #37
      00FFCEAFH   LINE      CODE     ---       #38
      00FFCEBEH   LINE      CODE     ---       #40
      00FFCEC5H   LINE      CODE     ---       #41
      00FFCEC7H   LINE      CODE     ---       #42
      00FFCECAH   LINE      CODE     ---       #43
      00FFCEDDH   LINE      CODE     ---       #44
      00FFCEFCH   LINE      CODE     ---       #45
      00FFCF0FH   LINE      CODE     ---       #47
      00FFCF15H   LINE      CODE     ---       #48
      00FFCF1BH   LINE      CODE     ---       #49
      00FFCF1BH   LINE      CODE     ---       #50
      00FFCF22H   LINE      CODE     ---       #51
      00FFCF28H   LINE      CODE     ---       #52
      ---         BLOCKEND  ---      ---       LVL=0

      00FFDC44H   BLOCK     CODE     ---       LVL=0
      00012EF8H   SYMBOL    XDATA    BYTE      exit_flag
      00FFDC44H   LINE      CODE     ---       #54
      00FFDC44H   LINE      CODE     ---       #55
      00FFDC44H   LINE      CODE     ---       #56
      00FFDC49H   LINE      CODE     ---       #57
      00FFDC58H   LINE      CODE     ---       #59
      00FFDC5FH   LINE      CODE     ---       #60
      00FFDC61H   LINE      CODE     ---       #61
      00FFDC64H   LINE      CODE     ---       #62
      00FFDC67H   LINE      CODE     ---       #64
      00FFDC6DH   LINE      CODE     ---       #65
      00FFDC73H   LINE      CODE     ---       #66
      00FFDC73H   LINE      CODE     ---       #67
      00FFDC7AH   LINE      CODE     ---       #68
      00FFDC80H   LINE      CODE     ---       #69
      00FFDC83H   LINE      CODE     ---       #70
      ---         BLOCKEND  ---      ---       LVL=0

      00FF9DF8H   BLOCK     CODE     ---       LVL=0
      00012EF9H   SYMBOL    XDATA    BYTE      exit_flag
      00FF9DF8H   LINE      CODE     ---       #75
      00FF9DF8H   LINE      CODE     ---       #76
      00FF9DF8H   LINE      CODE     ---       #77
      00FF9DFDH   LINE      CODE     ---       #79
      00FF9E04H   LINE      CODE     ---       #81
      00FF9E07H   LINE      CODE     ---       #83
      00FF9E2EH   LINE      CODE     ---       #84
      00FF9E3DH   LINE      CODE     ---       #86
      00FF9E64H   LINE      CODE     ---       #87
      00FF9E75H   LINE      CODE     ---       #89
      00FF9E9CH   LINE      CODE     ---       #90
      00FF9EADH   LINE      CODE     ---       #92
      00FF9ED4H   LINE      CODE     ---       #93
      00FF9EE5H   LINE      CODE     ---       #96
      00FF9F0CH   LINE      CODE     ---       #97
      00FF9F1DH   LINE      CODE     ---       #99
      00FF9F44H   LINE      CODE     ---       #100
      00FF9F55H   LINE      CODE     ---       #102
      00FF9F7CH   LINE      CODE     ---       #103
      00FF9F8DH   LINE      CODE     ---       #105
      00FF9FB4H   LINE      CODE     ---       #106
      00FF9FC5H   LINE      CODE     ---       #109
      00FF9FC8H   LINE      CODE     ---       #110
      00FF9FCEH   LINE      CODE     ---       #111
      00FF9FD4H   LINE      CODE     ---       #112
L251 LINKER/LOCATER V4.66.93.0                                                        06/12/2025  20:04:03  PAGE 116


      00FF9FD4H   LINE      CODE     ---       #115
      00FF9FDBH   LINE      CODE     ---       #116
      00FF9FE4H   LINE      CODE     ---       #117
      ---         BLOCKEND  ---      ---       LVL=0

      00FFDFF2H   BLOCK     CODE     ---       LVL=0
      00012EFAH   SYMBOL    XDATA    BYTE      exit_flag
      00FFDFF2H   LINE      CODE     ---       #118
      00FFDFF2H   LINE      CODE     ---       #119
      00FFDFF7H   LINE      CODE     ---       #120
      00FFDFFCH   LINE      CODE     ---       #123
      00FFE003H   LINE      CODE     ---       #124
      00FFE005H   LINE      CODE     ---       #125
      00FFE008H   LINE      CODE     ---       #127
      00FFE00BH   LINE      CODE     ---       #130
      00FFE011H   LINE      CODE     ---       #131
      00FFE017H   LINE      CODE     ---       #132
      00FFE017H   LINE      CODE     ---       #133
      00FFE01EH   LINE      CODE     ---       #134
      00FFE024H   LINE      CODE     ---       #135
      ---         BLOCKEND  ---      ---       LVL=0

      00FFE025H   BLOCK     CODE     ---       LVL=0
      00012EFBH   SYMBOL    XDATA    BYTE      exit_flag
      00FFE025H   LINE      CODE     ---       #136
      00FFE025H   LINE      CODE     ---       #137
      00FFE02AH   LINE      CODE     ---       #138
      00FFE02FH   LINE      CODE     ---       #141
      00FFE036H   LINE      CODE     ---       #142
      00FFE038H   LINE      CODE     ---       #143
      00FFE03BH   LINE      CODE     ---       #145
      00FFE03EH   LINE      CODE     ---       #148
      00FFE044H   LINE      CODE     ---       #149
      00FFE04AH   LINE      CODE     ---       #150
      00FFE04AH   LINE      CODE     ---       #151
      00FFE051H   LINE      CODE     ---       #152
      00FFE057H   LINE      CODE     ---       #153
      ---         BLOCKEND  ---      ---       LVL=0

      00FFDFBFH   BLOCK     CODE     ---       LVL=0
      00012EFCH   SYMBOL    XDATA    BYTE      exit_flag
      00FFDFBFH   LINE      CODE     ---       #154
      00FFDFBFH   LINE      CODE     ---       #155
      00FFDFC4H   LINE      CODE     ---       #156
      00FFDFC9H   LINE      CODE     ---       #159
      00FFDFD0H   LINE      CODE     ---       #161
      00FFDFD2H   LINE      CODE     ---       #162
      00FFDFD5H   LINE      CODE     ---       #164
      00FFDFD8H   LINE      CODE     ---       #167
      00FFDFDEH   LINE      CODE     ---       #168
      00FFDFE4H   LINE      CODE     ---       #169
      00FFDFE4H   LINE      CODE     ---       #170
      00FFDFEBH   LINE      CODE     ---       #171
      00FFDFF1H   LINE      CODE     ---       #172
      ---         BLOCKEND  ---      ---       LVL=0

      00FFDEADH   BLOCK     CODE     ---       LVL=0
      00012EFDH   SYMBOL    XDATA    BYTE      exit_flag
      00FFDEADH   LINE      CODE     ---       #175
      00FFDEADH   LINE      CODE     ---       #176
      00FFDEB2H   LINE      CODE     ---       #177
      00FFDEB7H   LINE      CODE     ---       #180
      00FFDEBEH   LINE      CODE     ---       #182
      00FFDEC0H   LINE      CODE     ---       #183
      00FFDEC3H   LINE      CODE     ---       #185
L251 LINKER/LOCATER V4.66.93.0                                                        06/12/2025  20:04:03  PAGE 117


      00FFDEC6H   LINE      CODE     ---       #187
      00FFDEC9H   LINE      CODE     ---       #188
      00FFDECCH   LINE      CODE     ---       #191
      00FFDED2H   LINE      CODE     ---       #192
      00FFDED8H   LINE      CODE     ---       #193
      00FFDED8H   LINE      CODE     ---       #194
      00FFDEDFH   LINE      CODE     ---       #195
      00FFDEE5H   LINE      CODE     ---       #196
      ---         BLOCKEND  ---      ---       LVL=0

      00FFE058H   BLOCK     CODE     ---       LVL=0
      00012EFEH   SYMBOL    XDATA    BYTE      exit_flag
      00FFE058H   LINE      CODE     ---       #198
      00FFE058H   LINE      CODE     ---       #199
      00FFE05DH   LINE      CODE     ---       #200
      00FFE062H   LINE      CODE     ---       #203
      00FFE069H   LINE      CODE     ---       #205
      00FFE06BH   LINE      CODE     ---       #206
      00FFE06EH   LINE      CODE     ---       #208
      00FFE071H   LINE      CODE     ---       #211
      00FFE077H   LINE      CODE     ---       #212
      00FFE07DH   LINE      CODE     ---       #213
      00FFE07DH   LINE      CODE     ---       #214
      00FFE084H   LINE      CODE     ---       #215
      00FFE08AH   LINE      CODE     ---       #216
      ---         BLOCKEND  ---      ---       LVL=0
      00012EFFH   SYMBOL    XDATA    BYTE      exit_flag

      00FFDF1EH   BLOCK     CODE     ---       LVL=0
      00012F00H   SYMBOL    XDATA    BYTE      exit_flag
      00FFDF1EH   LINE      CODE     ---       #237
      00FFDF1EH   LINE      CODE     ---       #238
      00FFDF23H   LINE      CODE     ---       #239
      00FFDF28H   LINE      CODE     ---       #242
      00FFDF2FH   LINE      CODE     ---       #244
      00FFDF31H   LINE      CODE     ---       #245
      00FFDF34H   LINE      CODE     ---       #247
      00FFDF3BH   LINE      CODE     ---       #250
      00FFDF41H   LINE      CODE     ---       #251
      00FFDF47H   LINE      CODE     ---       #252
      00FFDF47H   LINE      CODE     ---       #253
      00FFDF4EH   LINE      CODE     ---       #254
      00FFDF54H   LINE      CODE     ---       #255
      ---         BLOCKEND  ---      ---       LVL=0

      00FFE0BCH   BLOCK     CODE     ---       LVL=0
      00012F01H   SYMBOL    XDATA    BYTE      exit_flag
      00FFE0BCH   LINE      CODE     ---       #257
      00FFE0BCH   LINE      CODE     ---       #258
      00FFE0C1H   LINE      CODE     ---       #259
      00FFE0C6H   LINE      CODE     ---       #262
      00FFE0CDH   LINE      CODE     ---       #264
      00FFE0CFH   LINE      CODE     ---       #265
      00FFE0D2H   LINE      CODE     ---       #271
      00FFE0D8H   LINE      CODE     ---       #272
      00FFE0DEH   LINE      CODE     ---       #273
      00FFE0DEH   LINE      CODE     ---       #274
      00FFE0E5H   LINE      CODE     ---       #275
      00FFE0EBH   LINE      CODE     ---       #276
      ---         BLOCKEND  ---      ---       LVL=0

      00FF3570H   BLOCK     CODE     ---       LVL=0
      00FF3570H   LINE      CODE     ---       #279
      00FF3570H   LINE      CODE     ---       #281
      00FF3575H   LINE      CODE     ---       #282
L251 LINKER/LOCATER V4.66.93.0                                                        06/12/2025  20:04:03  PAGE 118


      00FF357AH   LINE      CODE     ---       #283
      00FF357FH   LINE      CODE     ---       #286
      00FF3592H   LINE      CODE     ---       #287
      00FF3598H   LINE      CODE     ---       #290
      00FF35ABH   LINE      CODE     ---       #291
      00FF35B3H   LINE      CODE     ---       #292
      00FF35B9H   LINE      CODE     ---       #293
      00FF35BFH   LINE      CODE     ---       #295
      00FF35D2H   LINE      CODE     ---       #296
      00FF35DAH   LINE      CODE     ---       #297
      00FF35E0H   LINE      CODE     ---       #298
      00FF35E6H   LINE      CODE     ---       #300
      00FF35F9H   LINE      CODE     ---       #301
      00FF3601H   LINE      CODE     ---       #302
      00FF3607H   LINE      CODE     ---       #303
      00FF360DH   LINE      CODE     ---       #305
      00FF3620H   LINE      CODE     ---       #306
      00FF362AH   LINE      CODE     ---       #307
      00FF362FH   LINE      CODE     ---       #315
      00FF3642H   LINE      CODE     ---       #316
      00FF364CH   LINE      CODE     ---       #317
      00FF3651H   LINE      CODE     ---       #319
      00FF3664H   LINE      CODE     ---       #320
      00FF366EH   LINE      CODE     ---       #321
      00FF3673H   LINE      CODE     ---       #324
      00FF3686H   LINE      CODE     ---       #325
      00FF368CH   LINE      CODE     ---       #327
      00FF369FH   LINE      CODE     ---       #328
      00FF36A9H   LINE      CODE     ---       #329
      00FF36AEH   LINE      CODE     ---       #331
      00FF36C1H   LINE      CODE     ---       #332
      00FF36CBH   LINE      CODE     ---       #333
      00FF36D0H   LINE      CODE     ---       #335
      00FF36E3H   LINE      CODE     ---       #336
      00FF36EBH   LINE      CODE     ---       #337
      00FF36F0H   LINE      CODE     ---       #340
      00FF3703H   LINE      CODE     ---       #341
      00FF3709H   LINE      CODE     ---       #343
      00FF371CH   LINE      CODE     ---       #344
      00FF3724H   LINE      CODE     ---       #345
      00FF372AH   LINE      CODE     ---       #346
      00FF3730H   LINE      CODE     ---       #348
      00FF3743H   LINE      CODE     ---       #349
      00FF374BH   LINE      CODE     ---       #350
      00FF3751H   LINE      CODE     ---       #351
      00FF3757H   LINE      CODE     ---       #353
      00FF376AH   LINE      CODE     ---       #354
      00FF3772H   LINE      CODE     ---       #355
      00FF3778H   LINE      CODE     ---       #356
      00FF377EH   LINE      CODE     ---       #358
      00FF3791H   LINE      CODE     ---       #359
      00FF3799H   LINE      CODE     ---       #360
      00FF379FH   LINE      CODE     ---       #361
      00FF37A5H   LINE      CODE     ---       #364
      00FF37B8H   LINE      CODE     ---       #365
      00FF37C2H   LINE      CODE     ---       #366
      00FF37C7H   LINE      CODE     ---       #368
      00FF37DAH   LINE      CODE     ---       #369
      00FF37E2H   LINE      CODE     ---       #370
      00FF37E7H   LINE      CODE     ---       #373
      00FF37FAH   LINE      CODE     ---       #374
      00FF3800H   LINE      CODE     ---       #376
      00FF3813H   LINE      CODE     ---       #377
      00FF381DH   LINE      CODE     ---       #378
      00FF3822H   LINE      CODE     ---       #380
L251 LINKER/LOCATER V4.66.93.0                                                        06/12/2025  20:04:03  PAGE 119


      00FF3835H   LINE      CODE     ---       #381
      00FF383FH   LINE      CODE     ---       #382
      00FF3844H   LINE      CODE     ---       #384
      00FF3857H   LINE      CODE     ---       #385
      00FF3861H   LINE      CODE     ---       #386
      00FF3866H   LINE      CODE     ---       #388
      00FF3879H   LINE      CODE     ---       #389
      00FF3881H   LINE      CODE     ---       #390
      00FF3886H   LINE      CODE     ---       #393
      00FF3899H   LINE      CODE     ---       #394
      00FF389FH   LINE      CODE     ---       #396
      00FF38B2H   LINE      CODE     ---       #397
      00FF38BCH   LINE      CODE     ---       #398
      00FF38C1H   LINE      CODE     ---       #400
      00FF38D4H   LINE      CODE     ---       #401
      00FF38DEH   LINE      CODE     ---       #402
      00FF38E3H   LINE      CODE     ---       #404
      00FF38F6H   LINE      CODE     ---       #405
      00FF3900H   LINE      CODE     ---       #406
      00FF3905H   LINE      CODE     ---       #408
      00FF3918H   LINE      CODE     ---       #409
      00FF3920H   LINE      CODE     ---       #410
      00FF3925H   LINE      CODE     ---       #413
      00FF3938H   LINE      CODE     ---       #414
      00FF393EH   LINE      CODE     ---       #416
      00FF3951H   LINE      CODE     ---       #417
      00FF395BH   LINE      CODE     ---       #418
      00FF3960H   LINE      CODE     ---       #420
      00FF3973H   LINE      CODE     ---       #421
      00FF397DH   LINE      CODE     ---       #422
      00FF3982H   LINE      CODE     ---       #424
      00FF3995H   LINE      CODE     ---       #425
      00FF399FH   LINE      CODE     ---       #426
      00FF39A4H   LINE      CODE     ---       #428
      00FF39B7H   LINE      CODE     ---       #429
      00FF39BFH   LINE      CODE     ---       #430
      00FF39C4H   LINE      CODE     ---       #433
      00FF39D7H   LINE      CODE     ---       #434
      00FF39DDH   LINE      CODE     ---       #436
      00FF39F0H   LINE      CODE     ---       #437
      00FF39FAH   LINE      CODE     ---       #438
      00FF39FFH   LINE      CODE     ---       #440
      00FF3A12H   LINE      CODE     ---       #441
      00FF3A1CH   LINE      CODE     ---       #442
      00FF3A21H   LINE      CODE     ---       #444
      00FF3A34H   LINE      CODE     ---       #445
      00FF3A3EH   LINE      CODE     ---       #446
      00FF3A43H   LINE      CODE     ---       #448
      00FF3A56H   LINE      CODE     ---       #449
      00FF3A5EH   LINE      CODE     ---       #450
      00FF3A63H   LINE      CODE     ---       #454
      00FF3A76H   LINE      CODE     ---       #455
      00FF3A7CH   LINE      CODE     ---       #457
      00FF3A8FH   LINE      CODE     ---       #458
      00FF3A99H   LINE      CODE     ---       #459
      00FF3A9EH   LINE      CODE     ---       #461
      00FF3AB1H   LINE      CODE     ---       #462
      00FF3ABBH   LINE      CODE     ---       #463
      00FF3AC0H   LINE      CODE     ---       #465
      00FF3AD3H   LINE      CODE     ---       #466
      00FF3ADDH   LINE      CODE     ---       #467
      00FF3AE2H   LINE      CODE     ---       #469
      00FF3AF5H   LINE      CODE     ---       #470
      00FF3AFFH   LINE      CODE     ---       #471
      00FF3B04H   LINE      CODE     ---       #473
L251 LINKER/LOCATER V4.66.93.0                                                        06/12/2025  20:04:03  PAGE 120


      00FF3B17H   LINE      CODE     ---       #474
      00FF3B21H   LINE      CODE     ---       #475
      00FF3B26H   LINE      CODE     ---       #477
      00FF3B39H   LINE      CODE     ---       #478
      00FF3B43H   LINE      CODE     ---       #479
      00FF3B48H   LINE      CODE     ---       #481
      00FF3B5BH   LINE      CODE     ---       #482
      00FF3B65H   LINE      CODE     ---       #483
      00FF3B6AH   LINE      CODE     ---       #485
      00FF3B7DH   LINE      CODE     ---       #486
      00FF3B87H   LINE      CODE     ---       #487
      00FF3B8CH   LINE      CODE     ---       #504
      ---         BLOCKEND  ---      ---       LVL=0

      00FF99FFH   BLOCK     CODE     ---       LVL=0
      00012B26H   SYMBOL    XDATA    BYTE      i
      00012B27H   SYMBOL    XDATA    BYTE      current_page_index
      00012B28H   SYMBOL    XDATA    BYTE      current_item_index
      00012B29H   SYMBOL    XDATA    ---       current_page
      00012B2DH   SYMBOL    XDATA    BYTE      items_per_column
      00FF9ABBH   BLOCK     CODE     NEAR LAB  LVL=1
      00012B2EH   SYMBOL    XDATA    BYTE      column
      00012B2FH   SYMBOL    XDATA    BYTE      row
      00012B30H   SYMBOL    XDATA    WORD      x_pos
      00012B32H   SYMBOL    XDATA    WORD      y_pos
      ---         BLOCKEND  ---      ---       LVL=1
      00FF99FFH   LINE      CODE     ---       #507
      00FF99FFH   LINE      CODE     ---       #509
      00FF9A14H   LINE      CODE     ---       #510
      00FF9A29H   LINE      CODE     ---       #511
      00FF9A45H   LINE      CODE     ---       #512
      00FF9A64H   LINE      CODE     ---       #515
      00FF9A6BH   LINE      CODE     ---       #518
      00FF9A80H   LINE      CODE     ---       #521
      00FF9A87H   LINE      CODE     ---       #522
      00FF9AA4H   LINE      CODE     ---       #523
      00FF9AB3H   LINE      CODE     ---       #526
      00FF9ABBH   LINE      CODE     ---       #527
      00FF9AD0H   LINE      CODE     ---       #528
      00FF9AE5H   LINE      CODE     ---       #529
      00FF9AF9H   LINE      CODE     ---       #530
      00FF9B0DH   LINE      CODE     ---       #532
      00FF9B1BH   LINE      CODE     ---       #533
      00FF9B26H   LINE      CODE     ---       #534
      00FF9B4FH   LINE      CODE     ---       #535
      00FF9B58H   LINE      CODE     ---       #536
      00FF9B5AH   LINE      CODE     ---       #537
      00FF9B83H   LINE      CODE     ---       #538
      00FF9B83H   LINE      CODE     ---       #540
      00FF9B9FH   LINE      CODE     ---       #541
      00FF9BBAH   LINE      CODE     ---       #542
      00FF9BD9H   LINE      CODE     ---       #546
      00FF9BECH   LINE      CODE     ---       #547
      00FF9BFFH   LINE      CODE     ---       #548
      ---         BLOCKEND  ---      ---       LVL=0

      00FF911DH   BLOCK     CODE     ---       LVL=0
      00012BF8H   SYMBOL    XDATA    BYTE      current_page_index
      00012BF9H   SYMBOL    XDATA    BYTE      current_item_index
      00012BFAH   SYMBOL    XDATA    ---       current_page
      00012BFEH   SYMBOL    XDATA    ---       current_item
      00012C02H   SYMBOL    XDATA    BYTE      key_pressed
      00012C03H   SYMBOL    XDATA    BYTE      items_per_column
      00FF911DH   LINE      CODE     ---       #551
      00FF911DH   LINE      CODE     ---       #552
L251 LINKER/LOCATER V4.66.93.0                                                        06/12/2025  20:04:03  PAGE 121


      00FF9132H   LINE      CODE     ---       #553
      00FF9147H   LINE      CODE     ---       #554
      00FF9163H   LINE      CODE     ---       #555
      00FF9187H   LINE      CODE     ---       #556
      00FF918CH   LINE      CODE     ---       #557
      00FF91ABH   LINE      CODE     ---       #560
      00FF91B1H   LINE      CODE     ---       #561
      00FF91BAH   LINE      CODE     ---       #562
      00FF91D3H   LINE      CODE     ---       #563
      00FF91D6H   LINE      CODE     ---       #564
      00FF91D6H   LINE      CODE     ---       #568
      00FF91DCH   LINE      CODE     ---       #569
      00FF91F8H   LINE      CODE     ---       #570
      00FF9211H   LINE      CODE     ---       #571
      00FF9214H   LINE      CODE     ---       #572
      00FF9214H   LINE      CODE     ---       #576
      00FF921AH   LINE      CODE     ---       #577
      00FF9228H   LINE      CODE     ---       #578
      00FF9248H   LINE      CODE     ---       #579
      00FF924BH   LINE      CODE     ---       #580
      00FF9256H   LINE      CODE     ---       #582
      00FF925CH   LINE      CODE     ---       #583
      00FF925FH   LINE      CODE     ---       #584
      00FF925FH   LINE      CODE     ---       #588
      00FF9265H   LINE      CODE     ---       #589
      00FF9287H   LINE      CODE     ---       #590
      00FF92A7H   LINE      CODE     ---       #591
      00FF92AAH   LINE      CODE     ---       #592
      00FF92AAH   LINE      CODE     ---       #597
      00FF92B3H   LINE      CODE     ---       #599
      00FF92CAH   LINE      CODE     ---       #601
      00FF92D6H   LINE      CODE     ---       #602
      00FF92DCH   LINE      CODE     ---       #603
      00FF92DFH   LINE      CODE     ---       #604
      00FF92E1H   LINE      CODE     ---       #607
      00FF92F1H   LINE      CODE     ---       #608
      00FF92F7H   LINE      CODE     ---       #609
      00FF9318H   LINE      CODE     ---       #610
      00FF932DH   LINE      CODE     ---       #611
      00FF9330H   LINE      CODE     ---       #612
      00FF9332H   LINE      CODE     ---       #614
      00FF9344H   LINE      CODE     ---       #615
      00FF9354H   LINE      CODE     ---       #616
      00FF9357H   LINE      CODE     ---       #617
      00FF9357H   LINE      CODE     ---       #619
      ---         BLOCKEND  ---      ---       LVL=0

      00FF9FE5H   BLOCK     CODE     ---       LVL=0
      00011E02H   SYMBOL    XDATA    ---       last_button_status
      00011E07H   SYMBOL    XDATA    BYTE      one_into_flag
      00FF9FE5H   LINE      CODE     ---       #622
      00FF9FE5H   LINE      CODE     ---       #625
      00FF9FEBH   LINE      CODE     ---       #627
      00FF9FF0H   LINE      CODE     ---       #628
      00FF9FF3H   LINE      CODE     ---       #629
      00FF9FF3H   LINE      CODE     ---       #632
      00FF9FFFH   LINE      CODE     ---       #633
      00FFA005H   LINE      CODE     ---       #634
      00FFA013H   LINE      CODE     ---       #635
      00FFA018H   LINE      CODE     ---       #636
      00FFA020H   LINE      CODE     ---       #637
      00FFA025H   LINE      CODE     ---       #638
      00FFA025H   LINE      CODE     ---       #640
      00FFA031H   LINE      CODE     ---       #641
      00FFA037H   LINE      CODE     ---       #642
L251 LINKER/LOCATER V4.66.93.0                                                        06/12/2025  20:04:03  PAGE 122


      00FFA045H   LINE      CODE     ---       #643
      00FFA04AH   LINE      CODE     ---       #644
      00FFA052H   LINE      CODE     ---       #645
      00FFA057H   LINE      CODE     ---       #646
      00FFA057H   LINE      CODE     ---       #648
      00FFA063H   LINE      CODE     ---       #649
      00FFA069H   LINE      CODE     ---       #650
      00FFA077H   LINE      CODE     ---       #651
      00FFA07CH   LINE      CODE     ---       #652
      00FFA084H   LINE      CODE     ---       #653
      00FFA089H   LINE      CODE     ---       #654
      00FFA089H   LINE      CODE     ---       #656
      00FFA095H   LINE      CODE     ---       #657
      00FFA09BH   LINE      CODE     ---       #658
      00FFA0A9H   LINE      CODE     ---       #659
      00FFA0AEH   LINE      CODE     ---       #660
      00FFA0B6H   LINE      CODE     ---       #661
      00FFA0BBH   LINE      CODE     ---       #662
      00FFA0BBH   LINE      CODE     ---       #664
      00FFA0C7H   LINE      CODE     ---       #665
      00FFA0CDH   LINE      CODE     ---       #666
      00FFA0DBH   LINE      CODE     ---       #667
      00FFA0E0H   LINE      CODE     ---       #668
      00FFA0E8H   LINE      CODE     ---       #669
      00FFA0EDH   LINE      CODE     ---       #670
      00FFA0EDH   LINE      CODE     ---       #673
      00FFA0F3H   LINE      CODE     ---       #675
      00FFA0FFH   LINE      CODE     ---       #676
      00FFA105H   LINE      CODE     ---       #677
      00FFA108H   LINE      CODE     ---       #678
      00FFA10BH   LINE      CODE     ---       #679
      00FFA111H   LINE      CODE     ---       #681
      00FFA14EH   LINE      CODE     ---       #683
      00FFA167H   LINE      CODE     ---       #684
      00FFA16AH   LINE      CODE     ---       #685
      00FFA16CH   LINE      CODE     ---       #686
      00FFA172H   LINE      CODE     ---       #688
      00FFA188H   LINE      CODE     ---       #689
      00FFA1A1H   LINE      CODE     ---       #690
      00FFA1A4H   LINE      CODE     ---       #691
      00FFA1A6H   LINE      CODE     ---       #692
      00FFA1ACH   LINE      CODE     ---       #694
      00FFA1AFH   LINE      CODE     ---       #695
      ---         BLOCKEND  ---      ---       LVL=0

      00FFDDF9H   BLOCK     CODE     ---       LVL=0
      00FFDDF9H   LINE      CODE     ---       #701
      00FFDDF9H   LINE      CODE     ---       #702
      00FFDDFEH   LINE      CODE     ---       #704
      00FFDE05H   LINE      CODE     ---       #705
      00FFDE18H   LINE      CODE     ---       #708
      00FFDE18H   LINE      CODE     ---       #709
      00FFDE36H   LINE      CODE     ---       #710
      00FFDE36H   LINE      CODE     ---       #711
      00FFDE36H   LINE      CODE     ---       #713
      ---         BLOCKEND  ---      ---       LVL=0

      00FFBBD0H   BLOCK     CODE     ---       LVL=0
      00012EE8H   SYMBOL    XDATA    BYTE      exit_flag
      00012EE9H   SYMBOL    XDATA    BYTE      i
      00FFBBD0H   LINE      CODE     ---       #716
      00FFBBD0H   LINE      CODE     ---       #717
      00FFBBD5H   LINE      CODE     ---       #719
      00FFBBDAH   LINE      CODE     ---       #722
      00FFBBE1H   LINE      CODE     ---       #723
L251 LINKER/LOCATER V4.66.93.0                                                        06/12/2025  20:04:03  PAGE 123


      00FFBBF4H   LINE      CODE     ---       #726
      00FFBBFBH   LINE      CODE     ---       #727
      00FFBC18H   LINE      CODE     ---       #728
      00FFBC27H   LINE      CODE     ---       #730
      00FFBC29H   LINE      CODE     ---       #732
      00FFBC3CH   LINE      CODE     ---       #733
      00FFBC4DH   LINE      CODE     ---       #736
      00FFBC60H   LINE      CODE     ---       #737
      00FFBC73H   LINE      CODE     ---       #738
      00FFBC76H   LINE      CODE     ---       #740
      00FFBC7CH   LINE      CODE     ---       #741
      00FFBC87H   LINE      CODE     ---       #742
      00FFBC87H   LINE      CODE     ---       #744
      00FFBC8DH   LINE      CODE     ---       #745
      00FFBC98H   LINE      CODE     ---       #746
      00FFBC98H   LINE      CODE     ---       #748
      00FFBC9EH   LINE      CODE     ---       #749
      00FFBCA4H   LINE      CODE     ---       #750
      00FFBCADH   LINE      CODE     ---       #752
      ---         BLOCKEND  ---      ---       LVL=0

      00FF6CA4H   BLOCK     CODE     ---       LVL=0
      0001286DH   SYMBOL    XDATA    BYTE      exit_flag
      0001286EH   SYMBOL    XDATA    ---       current_value
      00012872H   SYMBOL    XDATA    ---       param_name
      00012876H   SYMBOL    XDATA    BYTE      current_page_index
      00012877H   SYMBOL    XDATA    BYTE      current_item_index
      00012878H   SYMBOL    XDATA    BYTE      i
      00012879H   SYMBOL    XDATA    ---       value_str
      0001288DH   SYMBOL    XDATA    BYTE      modified
      00FF6CA4H   LINE      CODE     ---       #755
      00FF6CA4H   LINE      CODE     ---       #756
      00FF6CA9H   LINE      CODE     ---       #759
      00FF6CBEH   LINE      CODE     ---       #760
      00FF6CD3H   LINE      CODE     ---       #763
      00FF6CD8H   LINE      CODE     ---       #764
      00FF6CDDH   LINE      CODE     ---       #767
      00FF6D08H   LINE      CODE     ---       #768
      00FF6D1AH   LINE      CODE     ---       #769
      00FF6D2CH   LINE      CODE     ---       #770
      00FF6D5AH   LINE      CODE     ---       #771
      00FF6D6CH   LINE      CODE     ---       #772
      00FF6D7EH   LINE      CODE     ---       #773
      00FF6DAEH   LINE      CODE     ---       #774
      00FF6DC0H   LINE      CODE     ---       #775
      00FF6DD2H   LINE      CODE     ---       #776
      00FF6DD2H   LINE      CODE     ---       #777
      00FF6DD2H   LINE      CODE     ---       #778
      00FF6DD2H   LINE      CODE     ---       #781
      00FF6DD9H   LINE      CODE     ---       #782
      00FF6DECH   LINE      CODE     ---       #785
      00FF6DF3H   LINE      CODE     ---       #786
      00FF6E10H   LINE      CODE     ---       #787
      00FF6E1FH   LINE      CODE     ---       #789
      00FF6E22H   LINE      CODE     ---       #791
      00FF6E37H   LINE      CODE     ---       #792
      00FF6E4AH   LINE      CODE     ---       #795
      00FF6E78H   LINE      CODE     ---       #796
      00FF6E8BH   LINE      CODE     ---       #799
      00FF6E91H   LINE      CODE     ---       #800
      00FF6EA4H   LINE      CODE     ---       #801
      00FF6EA4H   LINE      CODE     ---       #804
      00FF6EB7H   LINE      CODE     ---       #805
      00FF6ECAH   LINE      CODE     ---       #806
      00FF6ECDH   LINE      CODE     ---       #808
L251 LINKER/LOCATER V4.66.93.0                                                        06/12/2025  20:04:03  PAGE 124


      00FF6ED3H   LINE      CODE     ---       #809
      00FF6EF6H   LINE      CODE     ---       #810
      00FF6EFCH   LINE      CODE     ---       #811
      00FF6EFCH   LINE      CODE     ---       #813
      00FF6F02H   LINE      CODE     ---       #814
      00FF6F25H   LINE      CODE     ---       #815
      00FF6F2BH   LINE      CODE     ---       #816
      00FF6F2BH   LINE      CODE     ---       #818
      00FF6F31H   LINE      CODE     ---       #819
      00FF6F52H   LINE      CODE     ---       #820
      00FF6F58H   LINE      CODE     ---       #821
      00FF6F58H   LINE      CODE     ---       #823
      00FF6F5EH   LINE      CODE     ---       #824
      00FF6F7FH   LINE      CODE     ---       #825
      00FF6F85H   LINE      CODE     ---       #826
      00FF6F85H   LINE      CODE     ---       #828
      00FF6F8BH   LINE      CODE     ---       #829
      00FF6F91H   LINE      CODE     ---       #830
      00FF6F97H   LINE      CODE     ---       #832
      00FF6F9AH   LINE      CODE     ---       #834
      00FF6F9DH   LINE      CODE     ---       #837
      00FF6FA4H   LINE      CODE     ---       #838
      00FF6FB7H   LINE      CODE     ---       #839
      00FF6FBEH   LINE      CODE     ---       #840
      00FF6FBEH   LINE      CODE     ---       #843
      00FF6FC5H   LINE      CODE     ---       #844
      00FF6FCEH   LINE      CODE     ---       #845
      ---         BLOCKEND  ---      ---       LVL=0

      00FF6979H   BLOCK     CODE     ---       LVL=0
      0001288EH   SYMBOL    XDATA    BYTE      exit_flag
      0001288FH   SYMBOL    XDATA    ---       current_value
      00012893H   SYMBOL    XDATA    ---       param_name
      00012897H   SYMBOL    XDATA    BYTE      current_page_index
      00012898H   SYMBOL    XDATA    BYTE      current_item_index
      00012899H   SYMBOL    XDATA    BYTE      i
      0001289AH   SYMBOL    XDATA    ---       value_str
      000128AEH   SYMBOL    XDATA    BYTE      modified
      00FF6979H   LINE      CODE     ---       #848
      00FF6979H   LINE      CODE     ---       #849
      00FF697EH   LINE      CODE     ---       #852
      00FF6993H   LINE      CODE     ---       #853
      00FF69A8H   LINE      CODE     ---       #856
      00FF69ADH   LINE      CODE     ---       #857
      00FF69B2H   LINE      CODE     ---       #860
      00FF69DDH   LINE      CODE     ---       #861
      00FF69EFH   LINE      CODE     ---       #862
      00FF6A01H   LINE      CODE     ---       #863
      00FF6A2FH   LINE      CODE     ---       #864
      00FF6A41H   LINE      CODE     ---       #865
      00FF6A53H   LINE      CODE     ---       #866
      00FF6A83H   LINE      CODE     ---       #867
      00FF6A95H   LINE      CODE     ---       #868
      00FF6AA7H   LINE      CODE     ---       #869
      00FF6AA7H   LINE      CODE     ---       #870
      00FF6AA7H   LINE      CODE     ---       #871
      00FF6AA7H   LINE      CODE     ---       #874
      00FF6AAEH   LINE      CODE     ---       #875
      00FF6AC1H   LINE      CODE     ---       #878
      00FF6AC8H   LINE      CODE     ---       #879
      00FF6AE5H   LINE      CODE     ---       #880
      00FF6AF4H   LINE      CODE     ---       #882
      00FF6AF7H   LINE      CODE     ---       #884
      00FF6B0CH   LINE      CODE     ---       #885
      00FF6B1FH   LINE      CODE     ---       #888
L251 LINKER/LOCATER V4.66.93.0                                                        06/12/2025  20:04:03  PAGE 125


      00FF6B4DH   LINE      CODE     ---       #889
      00FF6B60H   LINE      CODE     ---       #892
      00FF6B66H   LINE      CODE     ---       #893
      00FF6B79H   LINE      CODE     ---       #894
      00FF6B79H   LINE      CODE     ---       #897
      00FF6B8CH   LINE      CODE     ---       #898
      00FF6B9FH   LINE      CODE     ---       #899
      00FF6BA2H   LINE      CODE     ---       #901
      00FF6BA8H   LINE      CODE     ---       #902
      00FF6BCBH   LINE      CODE     ---       #903
      00FF6BD1H   LINE      CODE     ---       #904
      00FF6BD1H   LINE      CODE     ---       #906
      00FF6BD7H   LINE      CODE     ---       #907
      00FF6BFAH   LINE      CODE     ---       #908
      00FF6C00H   LINE      CODE     ---       #909
      00FF6C00H   LINE      CODE     ---       #911
      00FF6C06H   LINE      CODE     ---       #912
      00FF6C27H   LINE      CODE     ---       #913
      00FF6C2DH   LINE      CODE     ---       #914
      00FF6C2DH   LINE      CODE     ---       #916
      00FF6C33H   LINE      CODE     ---       #917
      00FF6C54H   LINE      CODE     ---       #918
      00FF6C5AH   LINE      CODE     ---       #919
      00FF6C5AH   LINE      CODE     ---       #921
      00FF6C60H   LINE      CODE     ---       #922
      00FF6C66H   LINE      CODE     ---       #923
      00FF6C6CH   LINE      CODE     ---       #925
      00FF6C6FH   LINE      CODE     ---       #927
      00FF6C72H   LINE      CODE     ---       #930
      00FF6C79H   LINE      CODE     ---       #931
      00FF6C8CH   LINE      CODE     ---       #932
      00FF6C93H   LINE      CODE     ---       #933
      00FF6C93H   LINE      CODE     ---       #936
      00FF6C9AH   LINE      CODE     ---       #937
      00FF6CA3H   LINE      CODE     ---       #938
      ---         BLOCKEND  ---      ---       LVL=0

      00FF6FCFH   BLOCK     CODE     ---       LVL=0
      000128AFH   SYMBOL    XDATA    BYTE      exit_flag
      000128B0H   SYMBOL    XDATA    ---       current_value
      000128B4H   SYMBOL    XDATA    ---       param_name
      000128B8H   SYMBOL    XDATA    BYTE      current_page_index
      000128B9H   SYMBOL    XDATA    BYTE      current_item_index
      000128BAH   SYMBOL    XDATA    BYTE      i
      000128BBH   SYMBOL    XDATA    ---       value_str
      000128CFH   SYMBOL    XDATA    BYTE      modified
      00FF6FCFH   LINE      CODE     ---       #941
      00FF6FCFH   LINE      CODE     ---       #942
      00FF6FD4H   LINE      CODE     ---       #945
      00FF6FE9H   LINE      CODE     ---       #946
      00FF6FFEH   LINE      CODE     ---       #949
      00FF7003H   LINE      CODE     ---       #950
      00FF7008H   LINE      CODE     ---       #953
      00FF7033H   LINE      CODE     ---       #954
      00FF7045H   LINE      CODE     ---       #955
      00FF7057H   LINE      CODE     ---       #956
      00FF7085H   LINE      CODE     ---       #957
      00FF7097H   LINE      CODE     ---       #958
      00FF70A9H   LINE      CODE     ---       #959
      00FF70D9H   LINE      CODE     ---       #960
      00FF70EBH   LINE      CODE     ---       #961
      00FF70FDH   LINE      CODE     ---       #962
      00FF70FDH   LINE      CODE     ---       #963
      00FF70FDH   LINE      CODE     ---       #964
      00FF70FDH   LINE      CODE     ---       #967
L251 LINKER/LOCATER V4.66.93.0                                                        06/12/2025  20:04:03  PAGE 126


      00FF7104H   LINE      CODE     ---       #970
      00FF710BH   LINE      CODE     ---       #971
      00FF7128H   LINE      CODE     ---       #972
      00FF7137H   LINE      CODE     ---       #974
      00FF713AH   LINE      CODE     ---       #976
      00FF714FH   LINE      CODE     ---       #977
      00FF7162H   LINE      CODE     ---       #980
      00FF7190H   LINE      CODE     ---       #981
      00FF71A3H   LINE      CODE     ---       #984
      00FF71A9H   LINE      CODE     ---       #985
      00FF71BCH   LINE      CODE     ---       #986
      00FF71BCH   LINE      CODE     ---       #989
      00FF71CFH   LINE      CODE     ---       #990
      00FF71E2H   LINE      CODE     ---       #991
      00FF71E5H   LINE      CODE     ---       #993
      00FF71EBH   LINE      CODE     ---       #994
      00FF720EH   LINE      CODE     ---       #995
      00FF7214H   LINE      CODE     ---       #996
      00FF7214H   LINE      CODE     ---       #998
      00FF721AH   LINE      CODE     ---       #999
      00FF723DH   LINE      CODE     ---       #1000
      00FF7243H   LINE      CODE     ---       #1001
      00FF7243H   LINE      CODE     ---       #1003
      00FF7249H   LINE      CODE     ---       #1004
      00FF726CH   LINE      CODE     ---       #1005
      00FF7272H   LINE      CODE     ---       #1006
      00FF7272H   LINE      CODE     ---       #1008
      00FF7278H   LINE      CODE     ---       #1009
      00FF729BH   LINE      CODE     ---       #1010
      00FF72A1H   LINE      CODE     ---       #1011
      00FF72A1H   LINE      CODE     ---       #1013
      00FF72A7H   LINE      CODE     ---       #1014
      00FF72ADH   LINE      CODE     ---       #1015
      00FF72B3H   LINE      CODE     ---       #1017
      00FF72B6H   LINE      CODE     ---       #1019
      00FF72B9H   LINE      CODE     ---       #1022
      00FF72C0H   LINE      CODE     ---       #1023
      00FF72D3H   LINE      CODE     ---       #1024
      00FF72DAH   LINE      CODE     ---       #1025
      00FF72DAH   LINE      CODE     ---       #1028
      00FF72E1H   LINE      CODE     ---       #1029
      00FF72EAH   LINE      CODE     ---       #1030
      ---         BLOCKEND  ---      ---       LVL=0

      00FF6637H   BLOCK     CODE     ---       LVL=0
      000128D0H   SYMBOL    XDATA    BYTE      exit_flag
      000128D1H   SYMBOL    XDATA    ---       current_value
      000128D5H   SYMBOL    XDATA    ---       param_name
      000128D9H   SYMBOL    XDATA    BYTE      current_page_index
      000128DAH   SYMBOL    XDATA    BYTE      current_item_index
      000128DBH   SYMBOL    XDATA    BYTE      i
      000128DCH   SYMBOL    XDATA    ---       value_str
      000128F0H   SYMBOL    XDATA    BYTE      modified
      00FF6637H   LINE      CODE     ---       #1033
      00FF6637H   LINE      CODE     ---       #1034
      00FF663CH   LINE      CODE     ---       #1037
      00FF6651H   LINE      CODE     ---       #1038
      00FF6666H   LINE      CODE     ---       #1041
      00FF666BH   LINE      CODE     ---       #1042
      00FF6670H   LINE      CODE     ---       #1045
      00FF669BH   LINE      CODE     ---       #1046
      00FF66ADH   LINE      CODE     ---       #1047
      00FF66BFH   LINE      CODE     ---       #1048
      00FF66EDH   LINE      CODE     ---       #1049
      00FF66FFH   LINE      CODE     ---       #1050
L251 LINKER/LOCATER V4.66.93.0                                                        06/12/2025  20:04:03  PAGE 127


      00FF6711H   LINE      CODE     ---       #1051
      00FF6741H   LINE      CODE     ---       #1052
      00FF6753H   LINE      CODE     ---       #1053
      00FF6765H   LINE      CODE     ---       #1054
      00FF6765H   LINE      CODE     ---       #1055
      00FF6765H   LINE      CODE     ---       #1056
      00FF6765H   LINE      CODE     ---       #1059
      00FF676CH   LINE      CODE     ---       #1060
      00FF677FH   LINE      CODE     ---       #1063
      00FF6786H   LINE      CODE     ---       #1064
      00FF67A3H   LINE      CODE     ---       #1065
      00FF67B2H   LINE      CODE     ---       #1067
      00FF67B5H   LINE      CODE     ---       #1069
      00FF67CAH   LINE      CODE     ---       #1070
      00FF67DDH   LINE      CODE     ---       #1073
      00FF680BH   LINE      CODE     ---       #1074
      00FF681EH   LINE      CODE     ---       #1077
      00FF6824H   LINE      CODE     ---       #1078
      00FF6837H   LINE      CODE     ---       #1079
      00FF6837H   LINE      CODE     ---       #1082
      00FF684AH   LINE      CODE     ---       #1083
      00FF685DH   LINE      CODE     ---       #1084
      00FF6870H   LINE      CODE     ---       #1085
      00FF6873H   LINE      CODE     ---       #1087
      00FF6879H   LINE      CODE     ---       #1088
      00FF689CH   LINE      CODE     ---       #1089
      00FF68A2H   LINE      CODE     ---       #1090
      00FF68A2H   LINE      CODE     ---       #1092
      00FF68A8H   LINE      CODE     ---       #1093
      00FF68CBH   LINE      CODE     ---       #1094
      00FF68D1H   LINE      CODE     ---       #1095
      00FF68D1H   LINE      CODE     ---       #1097
      00FF68D7H   LINE      CODE     ---       #1098
      00FF68FAH   LINE      CODE     ---       #1099
      00FF6900H   LINE      CODE     ---       #1100
      00FF6900H   LINE      CODE     ---       #1102
      00FF6906H   LINE      CODE     ---       #1103
      00FF6929H   LINE      CODE     ---       #1104
      00FF692FH   LINE      CODE     ---       #1105
      00FF692FH   LINE      CODE     ---       #1107
      00FF6935H   LINE      CODE     ---       #1108
      00FF693BH   LINE      CODE     ---       #1109
      00FF6941H   LINE      CODE     ---       #1111
      00FF6944H   LINE      CODE     ---       #1113
      00FF6947H   LINE      CODE     ---       #1116
      00FF694EH   LINE      CODE     ---       #1117
      00FF6961H   LINE      CODE     ---       #1118
      00FF6968H   LINE      CODE     ---       #1119
      00FF6968H   LINE      CODE     ---       #1122
      00FF696FH   LINE      CODE     ---       #1123
      00FF6978H   LINE      CODE     ---       #1124
      ---         BLOCKEND  ---      ---       LVL=0

      00FFC58AH   BLOCK     CODE     ---       LVL=0
      00012F02H   SYMBOL    XDATA    BYTE      i
      00FFC58AH   LINE      CODE     ---       #1127
      00FFC58AH   LINE      CODE     ---       #1129
      00FFC58FH   LINE      CODE     ---       #1132
      00FFC596H   LINE      CODE     ---       #1133
      00FFC5A9H   LINE      CODE     ---       #1136
      00FFC5B0H   LINE      CODE     ---       #1137
      00FFC5CDH   LINE      CODE     ---       #1138
      00FFC5DCH   LINE      CODE     ---       #1140
      00FFC5EFH   LINE      CODE     ---       #1143
      00FFC5F2H   LINE      CODE     ---       #1144
L251 LINKER/LOCATER V4.66.93.0                                                        06/12/2025  20:04:03  PAGE 128


      00FFC5F9H   LINE      CODE     ---       #1146
      00FFC60CH   LINE      CODE     ---       #1149
      00FFC60CH   LINE      CODE     ---       #1150
      00FFC60FH   LINE      CODE     ---       #1151
      00FFC62DH   LINE      CODE     ---       #1152
      00FFC62DH   LINE      CODE     ---       #1153
      00FFC62DH   LINE      CODE     ---       #1155
      ---         BLOCKEND  ---      ---       LVL=0

      00FF9590H   BLOCK     CODE     ---       LVL=0
      00012ECFH   SYMBOL    XDATA    BYTE      exit_flag
      00012ED0H   SYMBOL    XDATA    BYTE      confirm
      00012ED1H   SYMBOL    XDATA    BYTE      i
      00FF9590H   LINE      CODE     ---       #1159
      00FF9590H   LINE      CODE     ---       #1160
      00FF9595H   LINE      CODE     ---       #1161
      00FF959AH   LINE      CODE     ---       #1163
      00FF959FH   LINE      CODE     ---       #1166
      00FF95A6H   LINE      CODE     ---       #1167
      00FF95B9H   LINE      CODE     ---       #1170
      00FF95C0H   LINE      CODE     ---       #1171
      00FF95DDH   LINE      CODE     ---       #1172
      00FF95ECH   LINE      CODE     ---       #1175
      00FF95FFH   LINE      CODE     ---       #1176
      00FF9612H   LINE      CODE     ---       #1177
      00FF9625H   LINE      CODE     ---       #1179
      00FF9628H   LINE      CODE     ---       #1181
      00FF962EH   LINE      CODE     ---       #1182
      00FF9639H   LINE      CODE     ---       #1183
      00FF964CH   LINE      CODE     ---       #1184
      00FF9655H   LINE      CODE     ---       #1185
      00FF9668H   LINE      CODE     ---       #1186
      00FF966AH   LINE      CODE     ---       #1187
      00FF967DH   LINE      CODE     ---       #1188
      00FF9688H   LINE      CODE     ---       #1189
      00FF969BH   LINE      CODE     ---       #1190
      00FF96A4H   LINE      CODE     ---       #1191
      00FF96A4H   LINE      CODE     ---       #1194
      00FF96B7H   LINE      CODE     ---       #1195
      00FF96CAH   LINE      CODE     ---       #1196
      00FF96CDH   LINE      CODE     ---       #1198
      00FF96D9H   LINE      CODE     ---       #1199
      00FF96E8H   LINE      CODE     ---       #1200
      00FF96E8H   LINE      CODE     ---       #1202
      00FF96F1H   LINE      CODE     ---       #1203
      00FF96FAH   LINE      CODE     ---       #1205
      00FF96FDH   LINE      CODE     ---       #1209
      00FF9709H   LINE      CODE     ---       #1210
      00FF9715H   LINE      CODE     ---       #1211
      00FF9721H   LINE      CODE     ---       #1214
      00FF972DH   LINE      CODE     ---       #1215
      00FF9739H   LINE      CODE     ---       #1216
      00FF9745H   LINE      CODE     ---       #1219
      00FF9751H   LINE      CODE     ---       #1220
      00FF975DH   LINE      CODE     ---       #1221
      00FF9769H   LINE      CODE     ---       #1224
      00FF9775H   LINE      CODE     ---       #1225
      00FF9781H   LINE      CODE     ---       #1226
      00FF978DH   LINE      CODE     ---       #1229
      00FF9790H   LINE      CODE     ---       #1232
      00FF9797H   LINE      CODE     ---       #1233
      00FF97AAH   LINE      CODE     ---       #1234
      00FF97B1H   LINE      CODE     ---       #1235
      00FF97B1H   LINE      CODE     ---       #1236
      00FF97B7H   LINE      CODE     ---       #1237
L251 LINKER/LOCATER V4.66.93.0                                                        06/12/2025  20:04:03  PAGE 129


      00FF97B7H   LINE      CODE     ---       #1239
      00FF97BEH   LINE      CODE     ---       #1240
      00FF97C7H   LINE      CODE     ---       #1241
      ---         BLOCKEND  ---      ---       LVL=0

      ---         MODULE    ---      ---       IMU
      00FFD9F9H   PUBLIC    CODE     ---       IMU_lvbo
      00FFB3B2H   PUBLIC    CODE     ---       quaternion_to_euler
      00FFB4D3H   PUBLIC    CODE     ---       quaternion_display
      00FF62B3H   PUBLIC    CODE     ---       quaternion_update
      00FF87E3H   PUBLIC    CODE     ---       gyro_calibrate
      00FFD707H   PUBLIC    CODE     ---       quaternion_init
      00FF9C00H   PUBLIC    CODE     ---       quat_normalize
      00FF001EH   PUBLIC    CODE     ---       imu_isr
      00010000H   PUBLIC    XDATA    BYTE      ins_go_flag
      00010001H   PUBLIC    XDATA    BYTE      encoder_ins_memory_flag
      00010002H   PUBLIC    XDATA    ---       euler
      0001000EH   PUBLIC    XDATA    WORD      encoder_ins_num
      00010010H   PUBLIC    XDATA    ---       imu_data
      0001001CH   PUBLIC    XDATA    ---       encoder_file
      00010FBCH   PUBLIC    XDATA    ---       q
      00012987H   PUBLIC    XDATA    BYTE      ?quaternion_to_euler?BYTE
      000000D0H   SFRSYM    DATA     BYTE      PSW
      0000009DH   SFRSYM    DATA     BYTE      IRCBAND
      00000097H   SFRSYM    DATA     BYTE      AUXR2
      000000EFH   SFRSYM    DATA     BYTE      AUXINTIF
      000000FDH   SFRSYM    DATA     BYTE      S4CON
      000000ACH   SFRSYM    DATA     BYTE      S3CON
      0000009AH   SFRSYM    DATA     BYTE      S2CON
      000000B7H   SFRSYM    DATA     BYTE      IPH
      000000CDH   SFRSYM    DATA     BYTE      SPSTAT
      000000DDH   SFRSYM    DATA     BYTE      T4T3M
      000000C1H   SFRSYM    DATA     BYTE      WDT_CONTR
      000000DFH   SFRSYM    DATA     BYTE      IP3
      000000F4H   SFRSYM    DATA     BYTE      USBCON
      000000B5H   SFRSYM    DATA     BYTE      IP2
      000000FFH   SFRSYM    DATA     BYTE      RSTCFG
      000000C7H   SFRSYM    DATA     BYTE      IAP_CONTR
      0000008EH   SFRSYM    DATA     BYTE      AUXR
      000000AFH   SFRSYM    DATA     BYTE      IE2
      00000088H   SFRSYM    DATA     BYTE      TCON
      00000089H   SFRSYM    DATA     BYTE      TMOD
      00000098H   SFRSYM    DATA     BYTE      SCON
      00000087H   SFRSYM    DATA     BYTE      PCON
      000000BCH   SFRSYM    DATA     BYTE      ADC_CONTR
      000000D1H   SFRSYM    DATA     BYTE      PSW1
      000000E7H   SFRSYM    DATA     BYTE      CMPCR2
      000000E6H   SFRSYM    DATA     BYTE      CMPCR1
      000000DEH   SFRSYM    DATA     BYTE      ADCCFG
      000000B8H   SFRSYM    DATA     BYTE      IP
      0000008FH   SFRSYM    DATA     BYTE      INTCLKO
      000000EEH   SFRSYM    DATA     BYTE      IP3H
      000000B6H   SFRSYM    DATA     BYTE      IP2H
      000000BFH   SFRSYM    DATA     BYTE      P_SW4
      000000A8H   SFRSYM    DATA     BYTE      IE
      000000BBH   SFRSYM    DATA     BYTE      P_SW3
      000000BAH   SFRSYM    DATA     BYTE      P_SW2
      000000A2H   SFRSYM    DATA     BYTE      P_SW1
      000000CEH   SFRSYM    DATA     BYTE      SPCTL
      000000F8H   SFRSYM    DATA     BYTE      P7
      000000E8H   SFRSYM    DATA     BYTE      P6
      000000C8H   SFRSYM    DATA     BYTE      P5
      000000C0H   SFRSYM    DATA     BYTE      P4
      000000ABH   SFRSYM    DATA     BYTE      WKTCH
      000000B0H   SFRSYM    DATA     BYTE      P3
L251 LINKER/LOCATER V4.66.93.0                                                        06/12/2025  20:04:03  PAGE 130


      000000A0H   SFRSYM    DATA     BYTE      P2
      00000090H   SFRSYM    DATA     BYTE      P1
      00000080H   SFRSYM    DATA     BYTE      P0

      00FFD707H   BLOCK     CODE     ---       LVL=0
      00FFD707H   LINE      CODE     ---       #55
      00FFD707H   LINE      CODE     ---       #58
      00FFD717H   LINE      CODE     ---       #59
      00FFD723H   LINE      CODE     ---       #60
      00FFD72FH   LINE      CODE     ---       #61
      00FFD73BH   LINE      CODE     ---       #64
      00FFD747H   LINE      CODE     ---       #65
      00FFD753H   LINE      CODE     ---       #66
      00FFD75FH   LINE      CODE     ---       #67
      ---         BLOCKEND  ---      ---       LVL=0

      00FFD9F9H   BLOCK     CODE     ---       LVL=0
      00012EA2H   SYMBOL    XDATA    FLOAT     cy
      00FFD9F9H   LINE      CODE     ---       #75
      00FFDA03H   LINE      CODE     ---       #77
      00FFDA31H   LINE      CODE     ---       #79
      00FFDA3DH   LINE      CODE     ---       #80
      00FFDA3DH   LINE      CODE     ---       #81
      00FFDA47H   LINE      CODE     ---       #82
      ---         BLOCKEND  ---      ---       LVL=0

      00FF87E3H   BLOCK     CODE     ---       LVL=0
      00012EA6H   SYMBOL    XDATA    WORD      samples
      00FF87E9H   BLOCK     CODE     NEAR LAB  LVL=1
      00012EA8H   SYMBOL    XDATA    WORD      i
      ---         BLOCKEND  ---      ---       LVL=1
      00FF87E3H   LINE      CODE     ---       #90
      00FF87E9H   LINE      CODE     ---       #91
      00FF87E9H   LINE      CODE     ---       #95
      00FF87F5H   LINE      CODE     ---       #96
      00FF8801H   LINE      CODE     ---       #97
      00FF880DH   LINE      CODE     ---       #100
      00FF8814H   LINE      CODE     ---       #101
      00FF8823H   LINE      CODE     ---       #102
      00FF8834H   LINE      CODE     ---       #105
      00FF883FH   LINE      CODE     ---       #107
      00FF8842H   LINE      CODE     ---       #109
      00FF8861H   LINE      CODE     ---       #110
      00FF8880H   LINE      CODE     ---       #111
      00FF889FH   LINE      CODE     ---       #114
      00FF88AFH   LINE      CODE     ---       #116
      00FF88DCH   LINE      CODE     ---       #117
      00FF88EDH   LINE      CODE     ---       #118
      00FF88EDH   LINE      CODE     ---       #120
      00FF88F4H   LINE      CODE     ---       #121
      00FF8912H   LINE      CODE     ---       #124
      00FF8935H   LINE      CODE     ---       #125
      00FF8958H   LINE      CODE     ---       #126
      00FF897BH   LINE      CODE     ---       #129
      00FF89A2H   LINE      CODE     ---       #130
      00FF89B3H   LINE      CODE     ---       #131
      00FF89DAH   LINE      CODE     ---       #132
      00FF89EBH   LINE      CODE     ---       #133
      00FF8A12H   LINE      CODE     ---       #134
      00FF8A23H   LINE      CODE     ---       #136
      00FF8A34H   LINE      CODE     ---       #137
      00FF8A3BH   LINE      CODE     ---       #138
      ---         BLOCKEND  ---      ---       LVL=0

      00FF9C00H   BLOCK     CODE     ---       LVL=0
L251 LINKER/LOCATER V4.66.93.0                                                        06/12/2025  20:04:03  PAGE 131


      00012D72H   SYMBOL    XDATA    ---       q
      00FF9C0AH   BLOCK     CODE     NEAR LAB  LVL=1
      00012D76H   SYMBOL    XDATA    FLOAT     norm
      ---         BLOCKEND  ---      ---       LVL=1
      00FF9C00H   LINE      CODE     ---       #146
      00FF9C0AH   LINE      CODE     ---       #147
      00FF9C0AH   LINE      CODE     ---       #148
      00FF9CC6H   LINE      CODE     ---       #151
      00FF9CDDH   LINE      CODE     ---       #153
      00FF9CF4H   LINE      CODE     ---       #154
      00FF9D08H   LINE      CODE     ---       #155
      00FF9D1CH   LINE      CODE     ---       #156
      00FF9D30H   LINE      CODE     ---       #157
      00FF9D33H   LINE      CODE     ---       #158
      00FF9D33H   LINE      CODE     ---       #160
      00FF9D64H   LINE      CODE     ---       #161
      00FF9D95H   LINE      CODE     ---       #162
      00FF9DC6H   LINE      CODE     ---       #163
      00FF9DF7H   LINE      CODE     ---       #164
      ---         BLOCKEND  ---      ---       LVL=0

      00FF62B3H   BLOCK     CODE     ---       LVL=0
      00FF62B5H   BLOCK     CODE     NEAR LAB  LVL=1
      0001296BH   SYMBOL    XDATA    FLOAT     gx
      0001296FH   SYMBOL    XDATA    FLOAT     gy
      00012973H   SYMBOL    XDATA    FLOAT     gz
      00012977H   SYMBOL    XDATA    FLOAT     qDot1
      0001297BH   SYMBOL    XDATA    FLOAT     qDot2
      0001297FH   SYMBOL    XDATA    FLOAT     qDot3
      00012983H   SYMBOL    XDATA    FLOAT     qDot4
      ---         BLOCKEND  ---      ---       LVL=1
      00FF62B3H   LINE      CODE     ---       #172
      00FF62B5H   LINE      CODE     ---       #173
      00FF62B5H   LINE      CODE     ---       #178
      00FF62B8H   LINE      CODE     ---       #181
      00FF62E7H   LINE      CODE     ---       #182
      00FF6316H   LINE      CODE     ---       #183
      00FF6345H   LINE      CODE     ---       #186
      00FF635CH   LINE      CODE     ---       #187
      00FF6373H   LINE      CODE     ---       #188
      00FF638AH   LINE      CODE     ---       #192
      00FF63F7H   LINE      CODE     ---       #193
      00FF645FH   LINE      CODE     ---       #194
      00FF64C5H   LINE      CODE     ---       #195
      00FF652DH   LINE      CODE     ---       #198
      00FF6564H   LINE      CODE     ---       #199
      00FF659BH   LINE      CODE     ---       #200
      00FF65D2H   LINE      CODE     ---       #201
      00FF6609H   LINE      CODE     ---       #204
      00FF6614H   LINE      CODE     ---       #207
      00FF6634H   LINE      CODE     ---       #208
      ---         BLOCKEND  ---      ---       LVL=0
      00012EAAH   SYMBOL    XDATA    ---       ?DR12?

      00FFB3B2H   BLOCK     CODE     ---       LVL=0
      00012987H   SYMBOL    XDATA    ---       q
      00FFB3BCH   BLOCK     CODE     NEAR LAB  LVL=1
      00012997H   SYMBOL    XDATA    ---       ?DR12?
      0001299BH   SYMBOL    XDATA    FLOAT     siny_cosp
      0001299FH   SYMBOL    XDATA    FLOAT     cosy_cosp
      ---         BLOCKEND  ---      ---       LVL=1
      00FFB3B2H   LINE      CODE     ---       #227
      00FFB3BCH   LINE      CODE     ---       #228
      00FFB3BCH   LINE      CODE     ---       #232
      00FFB3C8H   LINE      CODE     ---       #233
L251 LINKER/LOCATER V4.66.93.0                                                        06/12/2025  20:04:03  PAGE 132


      00FFB3D4H   LINE      CODE     ---       #236
      00FFB41CH   LINE      CODE     ---       #237
      00FFB46FH   LINE      CODE     ---       #238
      00FFB490H   LINE      CODE     ---       #241
      00FFB4B8H   LINE      CODE     ---       #243
      00FFB4D2H   LINE      CODE     ---       #244
      ---         BLOCKEND  ---      ---       LVL=0

      00FFB4D3H   BLOCK     CODE     ---       LVL=0
      00FFB4D3H   LINE      CODE     ---       #252
      00FFB4D3H   LINE      CODE     ---       #255
      00FFB4FAH   LINE      CODE     ---       #256
      00FFB509H   LINE      CODE     ---       #257
      00FFB530H   LINE      CODE     ---       #258
      00FFB541H   LINE      CODE     ---       #259
      00FFB568H   LINE      CODE     ---       #260
      00FFB579H   LINE      CODE     ---       #261
      00FFB5A0H   LINE      CODE     ---       #262
      00FFB5B1H   LINE      CODE     ---       #265
      00FFB5D8H   LINE      CODE     ---       #266
      00FFB5E9H   LINE      CODE     ---       #267
      ---         BLOCKEND  ---      ---       LVL=0

      00FF001EH   BLOCK     CODE     ---       LVL=0
      00FF001EH   LINE      CODE     ---       #275
      00FF001EH   LINE      CODE     ---       #278
      00FF0021H   LINE      CODE     ---       #279
      ---         BLOCKEND  ---      ---       LVL=0
      00010FCCH   SYMBOL    XDATA    BYTE      encoder_ins_last_memory_flag
      00010FCDH   SYMBOL    XDATA    BYTE      frist_in_flag
      00010FCEH   SYMBOL    XDATA    WORD      encoder_ins_num_record

      ---         MODULE    ---      ---       contrl
      00FFE258H   PUBLIC    CODE     ---       speed_debug
      00FFAFE9H   PUBLIC    CODE     ---       control_output
      00FFD350H   PUBLIC    CODE     ---       control_init
      00FFA520H   PUBLIC    CODE     ---       core_trace
      00FFBD88H   PUBLIC    CODE     ---       speed_control_L
      00FFBCAEH   PUBLIC    CODE     ---       speed_control_R
      00FF78A5H   PUBLIC    CODE     ---       PidInit
      00FFD14FH   PUBLIC    CODE     ---       constrain_float
      00FFB806H   PUBLIC    CODE     ---       inductance_difference_ratio_sum
      00FFA6C5H   PUBLIC    CODE     ---       PidIncCtrl
      00FFA1B0H   PUBLIC    CODE     ---       PidLocCtrl
      00FFC220H   PUBLIC    CODE     ---       angle_speed_control
      00FF5AA8H   PUBLIC    CODE     ---       inductance_judgment
      00FFE277H   PUBLIC    CODE     ---       control_update
      00FFB90BH   PUBLIC    CODE     ---       angle_control
      00FF01BEH   PUBLIC    CODE     ---       angle_debug
      00FFE2E1H   PUBLIC    CODE     ---       speed_control
      0001214FH   PUBLIC    XDATA    FLOAT     target_speed
      00012153H   PUBLIC    XDATA    ---       PID_MOTOR_R
      00012183H   PUBLIC    XDATA    FLOAT     horizontal_diff_ratio_sum
      00012187H   PUBLIC    XDATA    FLOAT     inductance_horizontal_1_min
      0001218BH   PUBLIC    XDATA    FLOAT     inductance_horizontal_1_max
      0001218FH   PUBLIC    XDATA    FLOAT     inductance_horizontal_4_min
      00012193H   PUBLIC    XDATA    FLOAT     inductance_horizontal_4_max
      00012197H   PUBLIC    XDATA    FLOAT     angle_speed_output
      0001219BH   PUBLIC    XDATA    FLOAT     vertical_diff_ratio_sum
      0001219FH   PUBLIC    XDATA    FLOAT     inductance_vertical_2_min
      000121A3H   PUBLIC    XDATA    FLOAT     inductance_vertical_3_min
      000121A7H   PUBLIC    XDATA    FLOAT     inductance_vertical_2_max
      000121ABH   PUBLIC    XDATA    FLOAT     angle_output
      000121AFH   PUBLIC    XDATA    FLOAT     inductance_vertical_3_max
      000121B3H   PUBLIC    XDATA    FLOAT     PID_MOTOR_L_D
L251 LINKER/LOCATER V4.66.93.0                                                        06/12/2025  20:04:03  PAGE 133


      000121B7H   PUBLIC    XDATA    FLOAT     PID_MOTOR_L_I
      000121BBH   PUBLIC    XDATA    FLOAT     PID_MOTOR_R_D
      000121BFH   PUBLIC    XDATA    FLOAT     PID_MOTOR_R_I
      000121C3H   PUBLIC    XDATA    FLOAT     PID_MOTOR_L_P
      000121C7H   PUBLIC    XDATA    FLOAT     PID_MOTOR_R_P
      000121CBH   PUBLIC    XDATA    ---       PID_angle_speed
      000121FBH   PUBLIC    XDATA    ---       PID_angle
      0001222BH   PUBLIC    XDATA    FLOAT     PID_angle_speed_D
      0001222FH   PUBLIC    XDATA    FLOAT     PID_angle_speed_I
      00012233H   PUBLIC    XDATA    DWORD     time_out
      00012237H   PUBLIC    XDATA    FLOAT     PID_angle_D
      0001223BH   PUBLIC    XDATA    FLOAT     PID_angle_speed_P
      0001223FH   PUBLIC    XDATA    FLOAT     PID_angle_I
      00012243H   PUBLIC    XDATA    FLOAT     target_angle
      00012247H   PUBLIC    XDATA    FLOAT     motor_output_L
      0001224BH   PUBLIC    XDATA    FLOAT     PID_angle_P
      0001224FH   PUBLIC    XDATA    FLOAT     motor_output_R
      00012253H   PUBLIC    XDATA    ---       PID_MOTOR_L
      00012C04H   PUBLIC    XDATA    BYTE      ?constrain_float?BYTE
      000000D0H   SFRSYM    DATA     BYTE      PSW
      0000009DH   SFRSYM    DATA     BYTE      IRCBAND
      00000097H   SFRSYM    DATA     BYTE      AUXR2
      000000EFH   SFRSYM    DATA     BYTE      AUXINTIF
      000000FDH   SFRSYM    DATA     BYTE      S4CON
      000000ACH   SFRSYM    DATA     BYTE      S3CON
      0000009AH   SFRSYM    DATA     BYTE      S2CON
      000000B7H   SFRSYM    DATA     BYTE      IPH
      000000CDH   SFRSYM    DATA     BYTE      SPSTAT
      000000DDH   SFRSYM    DATA     BYTE      T4T3M
      000000C1H   SFRSYM    DATA     BYTE      WDT_CONTR
      000000DFH   SFRSYM    DATA     BYTE      IP3
      000000F4H   SFRSYM    DATA     BYTE      USBCON
      000000B5H   SFRSYM    DATA     BYTE      IP2
      000000FFH   SFRSYM    DATA     BYTE      RSTCFG
      000000C7H   SFRSYM    DATA     BYTE      IAP_CONTR
      0000008EH   SFRSYM    DATA     BYTE      AUXR
      000000AFH   SFRSYM    DATA     BYTE      IE2
      00000088H   SFRSYM    DATA     BYTE      TCON
      00000089H   SFRSYM    DATA     BYTE      TMOD
      00000098H   SFRSYM    DATA     BYTE      SCON
      00000087H   SFRSYM    DATA     BYTE      PCON
      000000BCH   SFRSYM    DATA     BYTE      ADC_CONTR
      000000D1H   SFRSYM    DATA     BYTE      PSW1
      000000E7H   SFRSYM    DATA     BYTE      CMPCR2
      000000E6H   SFRSYM    DATA     BYTE      CMPCR1
      000000DEH   SFRSYM    DATA     BYTE      ADCCFG
      000000B8H   SFRSYM    DATA     BYTE      IP
      0000008FH   SFRSYM    DATA     BYTE      INTCLKO
      000000EEH   SFRSYM    DATA     BYTE      IP3H
      000000B6H   SFRSYM    DATA     BYTE      IP2H
      000000BFH   SFRSYM    DATA     BYTE      P_SW4
      000000A8H   SFRSYM    DATA     BYTE      IE
      000000BBH   SFRSYM    DATA     BYTE      P_SW3
      000000BAH   SFRSYM    DATA     BYTE      P_SW2
      000000A2H   SFRSYM    DATA     BYTE      P_SW1
      000000CEH   SFRSYM    DATA     BYTE      SPCTL
      000000F8H   SFRSYM    DATA     BYTE      P7
      000000E8H   SFRSYM    DATA     BYTE      P6
      000000C8H   SFRSYM    DATA     BYTE      P5
      000000C0H   SFRSYM    DATA     BYTE      P4
      000000ABH   SFRSYM    DATA     BYTE      WKTCH
      000000B0H   SFRSYM    DATA     BYTE      P3
      000000A0H   SFRSYM    DATA     BYTE      P2
      00000090H   SFRSYM    DATA     BYTE      P1
      00000080H   SFRSYM    DATA     BYTE      P0
L251 LINKER/LOCATER V4.66.93.0                                                        06/12/2025  20:04:03  PAGE 134



      00FFD14FH   BLOCK     CODE     ---       LVL=0
      00012C04H   SYMBOL    XDATA    FLOAT     amt
      00012C08H   SYMBOL    XDATA    FLOAT     low
      00012C0CH   SYMBOL    XDATA    FLOAT     high
      00FFD14FH   LINE      CODE     ---       #46
      00FFD163H   LINE      CODE     ---       #48
      00FFD1B7H   LINE      CODE     ---       #49
      ---         BLOCKEND  ---      ---       LVL=0

      00FF78A5H   BLOCK     CODE     ---       LVL=0
      00FF78A5H   LINE      CODE     ---       #52
      00FF78A5H   LINE      CODE     ---       #55
      00FF78B9H   LINE      CODE     ---       #56
      00FF78CDH   LINE      CODE     ---       #57
      00FF78E1H   LINE      CODE     ---       #58
      00FF78F3H   LINE      CODE     ---       #59
      00FF78FFH   LINE      CODE     ---       #60
      00FF790BH   LINE      CODE     ---       #61
      00FF7917H   LINE      CODE     ---       #62
      00FF7923H   LINE      CODE     ---       #63
      00FF792FH   LINE      CODE     ---       #64
      00FF793BH   LINE      CODE     ---       #65
      00FF7947H   LINE      CODE     ---       #66
      00FF7953H   LINE      CODE     ---       #69
      00FF7967H   LINE      CODE     ---       #70
      00FF797BH   LINE      CODE     ---       #71
      00FF798FH   LINE      CODE     ---       #72
      00FF79A1H   LINE      CODE     ---       #73
      00FF79ADH   LINE      CODE     ---       #74
      00FF79B9H   LINE      CODE     ---       #75
      00FF79C5H   LINE      CODE     ---       #76
      00FF79D1H   LINE      CODE     ---       #77
      00FF79DDH   LINE      CODE     ---       #78
      00FF79E9H   LINE      CODE     ---       #79
      00FF79F5H   LINE      CODE     ---       #80
      00FF7A01H   LINE      CODE     ---       #83
      00FF7A15H   LINE      CODE     ---       #84
      00FF7A29H   LINE      CODE     ---       #85
      00FF7A3DH   LINE      CODE     ---       #86
      00FF7A4FH   LINE      CODE     ---       #87
      00FF7A5BH   LINE      CODE     ---       #88
      00FF7A67H   LINE      CODE     ---       #89
      00FF7A73H   LINE      CODE     ---       #90
      00FF7A7FH   LINE      CODE     ---       #91
      00FF7A8BH   LINE      CODE     ---       #92
      00FF7A97H   LINE      CODE     ---       #93
      00FF7AA3H   LINE      CODE     ---       #94
      00FF7AAFH   LINE      CODE     ---       #97
      00FF7AC3H   LINE      CODE     ---       #98
      00FF7AD7H   LINE      CODE     ---       #99
      00FF7AEBH   LINE      CODE     ---       #100
      00FF7AFDH   LINE      CODE     ---       #101
      00FF7B09H   LINE      CODE     ---       #102
      00FF7B15H   LINE      CODE     ---       #103
      00FF7B21H   LINE      CODE     ---       #104
      00FF7B2DH   LINE      CODE     ---       #105
      00FF7B39H   LINE      CODE     ---       #106
      00FF7B45H   LINE      CODE     ---       #107
      00FF7B51H   LINE      CODE     ---       #108
      00FF7B5DH   LINE      CODE     ---       #109
      ---         BLOCKEND  ---      ---       LVL=0

      00FFA1B0H   BLOCK     CODE     ---       LVL=0
      00012D7AH   SYMBOL    XDATA    ---       pid
L251 LINKER/LOCATER V4.66.93.0                                                        06/12/2025  20:04:03  PAGE 135


      00012D7EH   SYMBOL    XDATA    FLOAT     error
      00FFA1B0H   LINE      CODE     ---       #121
      00FFA1C4H   LINE      CODE     ---       #124
      00FFA1EDH   LINE      CODE     ---       #127
      00FFA24BH   LINE      CODE     ---       #129
      00FFA27BH   LINE      CODE     ---       #130
      00FFA2B4H   LINE      CODE     ---       #131
      00FFA2FAH   LINE      CODE     ---       #133
      00FFA316H   LINE      CODE     ---       #135
      00FFA364H   LINE      CODE     ---       #137
      00FFA376H   LINE      CODE     ---       #138
      ---         BLOCKEND  ---      ---       LVL=0

      00FFA6C5H   BLOCK     CODE     ---       LVL=0
      00012D82H   SYMBOL    XDATA    ---       pid
      00012D86H   SYMBOL    XDATA    FLOAT     error
      00FFA6C5H   LINE      CODE     ---       #150
      00FFA6D9H   LINE      CODE     ---       #152
      00FFA71EH   LINE      CODE     ---       #153
      00FFA74FH   LINE      CODE     ---       #154
      00FFA7AAH   LINE      CODE     ---       #156
      00FFA7DBH   LINE      CODE     ---       #157
      00FFA7F7H   LINE      CODE     ---       #159
      00FFA852H   LINE      CODE     ---       #160
      00FFA864H   LINE      CODE     ---       #161
      ---         BLOCKEND  ---      ---       LVL=0

      00FF5AA8H   BLOCK     CODE     ---       LVL=0
      00FF5AA8H   LINE      CODE     ---       #176
      00FF5AA8H   LINE      CODE     ---       #178
      00FF5AE1H   LINE      CODE     ---       #179
      00FF5B1AH   LINE      CODE     ---       #180
      00FF5B53H   LINE      CODE     ---       #181
      00FF5B8CH   LINE      CODE     ---       #182
      00FF5BC5H   LINE      CODE     ---       #183
      00FF5BFEH   LINE      CODE     ---       #184
      00FF5C37H   LINE      CODE     ---       #185
      00FF5C70H   LINE      CODE     ---       #186
      00FF5C81H   LINE      CODE     ---       #187
      00FF5CA8H   LINE      CODE     ---       #188
      00FF5CBBH   LINE      CODE     ---       #189
      00FF5CCEH   LINE      CODE     ---       #190
      00FF5CF5H   LINE      CODE     ---       #191
      00FF5D08H   LINE      CODE     ---       #192
      00FF5D1BH   LINE      CODE     ---       #193
      00FF5D42H   LINE      CODE     ---       #194
      00FF5D55H   LINE      CODE     ---       #195
      00FF5D68H   LINE      CODE     ---       #196
      00FF5D8FH   LINE      CODE     ---       #197
      00FF5DA2H   LINE      CODE     ---       #198
      00FF5DB5H   LINE      CODE     ---       #199
      00FF5DDCH   LINE      CODE     ---       #200
      00FF5DEFH   LINE      CODE     ---       #201
      00FF5E02H   LINE      CODE     ---       #202
      00FF5E29H   LINE      CODE     ---       #203
      00FF5E3CH   LINE      CODE     ---       #204
      00FF5E4FH   LINE      CODE     ---       #205
      00FF5E76H   LINE      CODE     ---       #206
      00FF5E89H   LINE      CODE     ---       #207
      00FF5E9CH   LINE      CODE     ---       #208
      00FF5EC3H   LINE      CODE     ---       #209
      00FF5ED6H   LINE      CODE     ---       #210
      ---         BLOCKEND  ---      ---       LVL=0

      00FFB806H   BLOCK     CODE     ---       LVL=0
L251 LINKER/LOCATER V4.66.93.0                                                        06/12/2025  20:04:03  PAGE 136


      00012AA5H   SYMBOL    XDATA    FLOAT     vertical_sum
      00012AA9H   SYMBOL    XDATA    FLOAT     vertical_diff
      00012AADH   SYMBOL    XDATA    FLOAT     horizontal_diff
      00012AB1H   SYMBOL    XDATA    FLOAT     horizontal_sum
      00FFB806H   LINE      CODE     ---       #222
      00FFB806H   LINE      CODE     ---       #223
      00FFB806H   LINE      CODE     ---       #229
      00FFB827H   LINE      CODE     ---       #230
      00FFB848H   LINE      CODE     ---       #233
      00FFB859H   LINE      CODE     ---       #234
      00FFB87AH   LINE      CODE     ---       #235
      00FFB87CH   LINE      CODE     ---       #236
      00FFB888H   LINE      CODE     ---       #237
      00FFB888H   LINE      CODE     ---       #240
      00FFB8A9H   LINE      CODE     ---       #241
      00FFB8CAH   LINE      CODE     ---       #244
      00FFB8DBH   LINE      CODE     ---       #245
      00FFB8FCH   LINE      CODE     ---       #246
      00FFB8FEH   LINE      CODE     ---       #247
      00FFB90AH   LINE      CODE     ---       #248
      00FFB90AH   LINE      CODE     ---       #249
      ---         BLOCKEND  ---      ---       LVL=0

      00FFB90BH   BLOCK     CODE     ---       LVL=0
      00012D8AH   SYMBOL    XDATA    FLOAT     angle_error
      00012D8EH   SYMBOL    XDATA    FLOAT     current_angle
      00FFB90BH   LINE      CODE     ---       #258
      00FFB90BH   LINE      CODE     ---       #259
      00FFB90BH   LINE      CODE     ---       #260
      00FFB917H   LINE      CODE     ---       #263
      00FFB92BH   LINE      CODE     ---       #266
      00FFB94CH   LINE      CODE     ---       #269
      00FFB9B4H   LINE      CODE     ---       #273
      00FFB9D3H   LINE      CODE     ---       #276
      00FFBA00H   LINE      CODE     ---       #277
      ---         BLOCKEND  ---      ---       LVL=0

      00FFC220H   BLOCK     CODE     ---       LVL=0
      00012C10H   SYMBOL    XDATA    FLOAT     target_angular_speed
      00FFC22AH   BLOCK     CODE     NEAR LAB  LVL=1
      00012C14H   SYMBOL    XDATA    FLOAT     angular_speed_error
      00012C18H   SYMBOL    XDATA    FLOAT     current_angular_speed
      ---         BLOCKEND  ---      ---       LVL=1
      00FFC220H   LINE      CODE     ---       #285
      00FFC22AH   LINE      CODE     ---       #286
      00FFC22AH   LINE      CODE     ---       #287
      00FFC236H   LINE      CODE     ---       #291
      00FFC265H   LINE      CODE     ---       #294
      00FFC286H   LINE      CODE     ---       #297
      00FFC2B3H   LINE      CODE     ---       #300
      00FFC2D2H   LINE      CODE     ---       #303
      ---         BLOCKEND  ---      ---       LVL=0

      00FFBD88H   BLOCK     CODE     ---       LVL=0
      00012C1CH   SYMBOL    XDATA    FLOAT     speed_error
      00012C20H   SYMBOL    XDATA    FLOAT     current_speed_L
      00012C24H   SYMBOL    XDATA    FLOAT     target_speed_L
      00FFBD88H   LINE      CODE     ---       #311
      00FFBD88H   LINE      CODE     ---       #312
      00FFBD88H   LINE      CODE     ---       #313
      00FFBD94H   LINE      CODE     ---       #316
      00FFBDA9H   LINE      CODE     ---       #320
      00FFBDBDH   LINE      CODE     ---       #322
      00FFBDF0H   LINE      CODE     ---       #324
      00FFBE11H   LINE      CODE     ---       #327
L251 LINKER/LOCATER V4.66.93.0                                                        06/12/2025  20:04:03  PAGE 137


      00FFBE30H   LINE      CODE     ---       #330
      00FFBE5FH   LINE      CODE     ---       #331
      ---         BLOCKEND  ---      ---       LVL=0

      00FFBCAEH   BLOCK     CODE     ---       LVL=0
      00012C28H   SYMBOL    XDATA    FLOAT     speed_error
      00012C2CH   SYMBOL    XDATA    FLOAT     current_speed_R
      00012C30H   SYMBOL    XDATA    FLOAT     target_speed_R
      00FFBCAEH   LINE      CODE     ---       #339
      00FFBCAEH   LINE      CODE     ---       #340
      00FFBCAEH   LINE      CODE     ---       #341
      00FFBCBAH   LINE      CODE     ---       #344
      00FFBCCFH   LINE      CODE     ---       #348
      00FFBCE3H   LINE      CODE     ---       #350
      00FFBD18H   LINE      CODE     ---       #352
      00FFBD39H   LINE      CODE     ---       #355
      00FFBD58H   LINE      CODE     ---       #358
      00FFBD87H   LINE      CODE     ---       #359
      ---         BLOCKEND  ---      ---       LVL=0

      00FFE2E1H   BLOCK     CODE     ---       LVL=0
      00FFE2E1H   LINE      CODE     ---       #367
      00FFE2E1H   LINE      CODE     ---       #370
      00FFE2E4H   LINE      CODE     ---       #371
      00FFE2E7H   LINE      CODE     ---       #386
      ---         BLOCKEND  ---      ---       LVL=0

      00FFE277H   BLOCK     CODE     ---       LVL=0
      00FFE277H   LINE      CODE     ---       #394
      00FFE277H   LINE      CODE     ---       #397
      00FFE27AH   LINE      CODE     ---       #400
      00FFE287H   LINE      CODE     ---       #403
      00FFE28AH   LINE      CODE     ---       #404
      ---         BLOCKEND  ---      ---       LVL=0

      00FFD350H   BLOCK     CODE     ---       LVL=0
      00FFD350H   LINE      CODE     ---       #463
      00FFD350H   LINE      CODE     ---       #465
      00FFD369H   LINE      CODE     ---       #466
      00FFD382H   LINE      CODE     ---       #467
      00FFD39BH   LINE      CODE     ---       #468
      00FFD3B4H   LINE      CODE     ---       #469
      ---         BLOCKEND  ---      ---       LVL=0

      00FFAFE9H   BLOCK     CODE     ---       LVL=0
      00FFAFE9H   LINE      CODE     ---       #471
      00FFAFE9H   LINE      CODE     ---       #473
      00FFAFECH   LINE      CODE     ---       #474
      00FFB017H   LINE      CODE     ---       #475
      00FFB042H   LINE      CODE     ---       #476
      00FFB053H   LINE      CODE     ---       #478
      00FFB06DH   LINE      CODE     ---       #479
      00FFB087H   LINE      CODE     ---       #481
      00FFB089H   LINE      CODE     ---       #485
      00FFB0A6H   LINE      CODE     ---       #486
      00FFB0C3H   LINE      CODE     ---       #487
      00FFB0C3H   LINE      CODE     ---       #488
      00FFB0D4H   LINE      CODE     ---       #490
      00FFB0EEH   LINE      CODE     ---       #491
      00FFB108H   LINE      CODE     ---       #493
      00FFB10AH   LINE      CODE     ---       #497
      00FFB127H   LINE      CODE     ---       #498
      00FFB144H   LINE      CODE     ---       #499
      00FFB144H   LINE      CODE     ---       #500
      ---         BLOCKEND  ---      ---       LVL=0
L251 LINKER/LOCATER V4.66.93.0                                                        06/12/2025  20:04:03  PAGE 138



      00FFE258H   BLOCK     CODE     ---       LVL=0
      00FFE258H   LINE      CODE     ---       #503
      00FFE258H   LINE      CODE     ---       #506
      00FFE264H   LINE      CODE     ---       #507
      00FFE270H   LINE      CODE     ---       #508
      00FFE273H   LINE      CODE     ---       #509
      00FFE276H   LINE      CODE     ---       #510
      ---         BLOCKEND  ---      ---       LVL=0

      00FF01BEH   BLOCK     CODE     ---       LVL=0
      00FF01BEH   LINE      CODE     ---       #512
      00FF01BEH   LINE      CODE     ---       #514
      00FF01C1H   LINE      CODE     ---       #515
      00FF01C4H   LINE      CODE     ---       #516
      ---         BLOCKEND  ---      ---       LVL=0

      00FFA520H   BLOCK     CODE     ---       LVL=0
      00012D92H   SYMBOL    XDATA    FLOAT     total_inductance
      00012D96H   SYMBOL    XDATA    FLOAT     angle_correction
      00FFA520H   LINE      CODE     ---       #519
      00FFA520H   LINE      CODE     ---       #520
      00FFA520H   LINE      CODE     ---       #521
      00FFA52CH   LINE      CODE     ---       #522
      00FFA538H   LINE      CODE     ---       #529
      00FFA555H   LINE      CODE     ---       #533
      00FFA583H   LINE      CODE     ---       #536
      00FFA5AAH   LINE      CODE     ---       #538
      00FFA5AAH   LINE      CODE     ---       #541
      00FFA5AAH   LINE      CODE     ---       #544
      00FFA5E5H   LINE      CODE     ---       #547
      00FFA5FAH   LINE      CODE     ---       #550
      00FFA60DH   LINE      CODE     ---       #551
      00FFA61DH   LINE      CODE     ---       #553
      00FFA62DH   LINE      CODE     ---       #555
      00FFA62FH   LINE      CODE     ---       #559
      00FFA63BH   LINE      CODE     ---       #560
      00FFA63BH   LINE      CODE     ---       #563
      00FFA65CH   LINE      CODE     ---       #566
      00FFA6C4H   LINE      CODE     ---       #571
      ---         BLOCKEND  ---      ---       LVL=0

      ---         MODULE    ---      ---       set_task
      00FFD6ABH   PUBLIC    CODE     ---       set_task_mode
      000126FEH   PUBLIC    XDATA    CHAR      _this_task
      000126FFH   PUBLIC    XDATA    ---       user_task
      0001273BH   PUBLIC    XDATA    CHAR      _task_for_cnt

      00FFD6ABH   BLOCK     CODE     ---       LVL=0
      00012F03H   SYMBOL    XDATA    CHAR      task_num
      00FFD6ABH   LINE      CODE     ---       #8
      00FFD6ABH   LINE      CODE     ---       #9
      00FFD6ABH   LINE      CODE     ---       #11
      00FFD6B2H   LINE      CODE     ---       #12
      00FFD706H   LINE      CODE     ---       #13
      ---         BLOCKEND  ---      ---       LVL=0

      ---         MODULE    ---      ---       image
      000000D0H   SFRSYM    DATA     BYTE      PSW
      0000009DH   SFRSYM    DATA     BYTE      IRCBAND
      00000097H   SFRSYM    DATA     BYTE      AUXR2
      000000EFH   SFRSYM    DATA     BYTE      AUXINTIF
      000000FDH   SFRSYM    DATA     BYTE      S4CON
      000000ACH   SFRSYM    DATA     BYTE      S3CON
      0000009AH   SFRSYM    DATA     BYTE      S2CON
L251 LINKER/LOCATER V4.66.93.0                                                        06/12/2025  20:04:03  PAGE 139


      000000B7H   SFRSYM    DATA     BYTE      IPH
      000000CDH   SFRSYM    DATA     BYTE      SPSTAT
      000000DDH   SFRSYM    DATA     BYTE      T4T3M
      000000C1H   SFRSYM    DATA     BYTE      WDT_CONTR
      000000DFH   SFRSYM    DATA     BYTE      IP3
      000000F4H   SFRSYM    DATA     BYTE      USBCON
      000000B5H   SFRSYM    DATA     BYTE      IP2
      000000FFH   SFRSYM    DATA     BYTE      RSTCFG
      000000C7H   SFRSYM    DATA     BYTE      IAP_CONTR
      0000008EH   SFRSYM    DATA     BYTE      AUXR
      000000AFH   SFRSYM    DATA     BYTE      IE2
      00000088H   SFRSYM    DATA     BYTE      TCON
      00000089H   SFRSYM    DATA     BYTE      TMOD
      00000098H   SFRSYM    DATA     BYTE      SCON
      00000087H   SFRSYM    DATA     BYTE      PCON
      000000BCH   SFRSYM    DATA     BYTE      ADC_CONTR
      000000D1H   SFRSYM    DATA     BYTE      PSW1
      000000E7H   SFRSYM    DATA     BYTE      CMPCR2
      000000E6H   SFRSYM    DATA     BYTE      CMPCR1
      000000DEH   SFRSYM    DATA     BYTE      ADCCFG
      000000B8H   SFRSYM    DATA     BYTE      IP
      0000008FH   SFRSYM    DATA     BYTE      INTCLKO
      000000EEH   SFRSYM    DATA     BYTE      IP3H
      000000B6H   SFRSYM    DATA     BYTE      IP2H
      000000BFH   SFRSYM    DATA     BYTE      P_SW4
      000000A8H   SFRSYM    DATA     BYTE      IE
      000000BBH   SFRSYM    DATA     BYTE      P_SW3
      000000BAH   SFRSYM    DATA     BYTE      P_SW2
      000000A2H   SFRSYM    DATA     BYTE      P_SW1
      000000CEH   SFRSYM    DATA     BYTE      SPCTL
      000000F8H   SFRSYM    DATA     BYTE      P7
      000000E8H   SFRSYM    DATA     BYTE      P6
      000000C8H   SFRSYM    DATA     BYTE      P5
      000000C0H   SFRSYM    DATA     BYTE      P4
      000000ABH   SFRSYM    DATA     BYTE      WKTCH
      000000B0H   SFRSYM    DATA     BYTE      P3
      000000A0H   SFRSYM    DATA     BYTE      P2
      00000090H   SFRSYM    DATA     BYTE      P1
      00000080H   SFRSYM    DATA     BYTE      P0
      00012CB9H   SYMBOL    XDATA    WORD      last_x
      00012CBBH   SYMBOL    XDATA    WORD      last_y
      00012CBDH   SYMBOL    XDATA    BYTE      first_point
      00012CBEH   SYMBOL    XDATA    BYTE      i
      00012CBFH   SYMBOL    XDATA    INT       last_encoder
      00012CC1H   SYMBOL    XDATA    WORD      color
      000127F8H   SYMBOL    XDATA    INT       current_encoder
      000127FAH   SYMBOL    XDATA    FLOAT     speed
      000127FEH   SYMBOL    XDATA    FLOAT     scaling_factor
      00012802H   SYMBOL    XDATA    FLOAT     angle_rad
      00012806H   SYMBOL    XDATA    WORD      new_x
      00012808H   SYMBOL    XDATA    WORD      new_y
      0001280AH   SYMBOL    XDATA    INT       dx
      0001280CH   SYMBOL    XDATA    INT       dy
      0001280EH   SYMBOL    XDATA    INT       steps
      00012810H   SYMBOL    XDATA    FLOAT     x_inc
      00012814H   SYMBOL    XDATA    FLOAT     y_inc
      00012818H   SYMBOL    XDATA    FLOAT     x
      0001281CH   SYMBOL    XDATA    FLOAT     y

      ---         MODULE    ---      ---       ?C?FPADD
      00FF2224H   PUBLIC    CODE     ---       ?C?FPADD
      00FF2221H   PUBLIC    CODE     ---       ?C?FPSUB

      ---         MODULE    ---      ---       ?C?FPMUL
      00FF22DCH   PUBLIC    CODE     ---       ?C?FPMUL
L251 LINKER/LOCATER V4.66.93.0                                                        06/12/2025  20:04:03  PAGE 140



      ---         MODULE    ---      ---       ?C?FPDIV
      00FF237CH   PUBLIC    CODE     ---       ?C?FPDIV

      ---         MODULE    ---      ---       ?C?FPCMP
      00FF23FFH   PUBLIC    CODE     ---       ?C?FPCMP
      00FF23FDH   PUBLIC    CODE     ---       ?C?FPCMP3

      ---         MODULE    ---      ---       ?C?FPNEG
      00FF2443H   PUBLIC    CODE     ---       ?C?FPNEG

      ---         MODULE    ---      ---       ?C?FCAST
      00FF245BH   PUBLIC    CODE     NEAR LAB  ?C?FCASTC
      00FF2456H   PUBLIC    CODE     NEAR LAB  ?C?FCASTI
      00FF2451H   PUBLIC    CODE     NEAR LAB  ?C?FCASTL

      ---         MODULE    ---      ---       ?C?CASTF
      00FF248EH   PUBLIC    CODE     NEAR LAB  ?C?CASTF

      ---         MODULE    ---      ---       PRINTF
      00012848H   PUBLIC    XDATA    ---       ?PRINTF?BYTE
      00FF24CBH   PUBLIC    CODE     NEAR LAB  PRINTF

      ---         MODULE    ---      ---       SPRINTF
      00012848H   PUBLIC    XDATA    ---       ?SPRINTF?BYTE
      00FF24F7H   PUBLIC    CODE     NEAR LAB  SPRINTF

      ---         MODULE    ---      ---       VSPRINTF
      00012818H   PUBLIC    XDATA    ---       ?VSPRINTF?BYTE
      00FF2517H   PUBLIC    CODE     NEAR LAB  VSPRINTF

      ---         MODULE    ---      ---       FABS
      00FF2539H   PUBLIC    CODE     NEAR LAB  FABS?_

      ---         MODULE    ---      ---       SQRT?_
      00FF2548H   PUBLIC    CODE     ---       SQRT?_

      ---         MODULE    ---      ---       SIN?_
      00FF2620H   PUBLIC    CODE     ---       COS?_
      00FF263DH   PUBLIC    CODE     ---       SIN?_
      00FF266AH   PUBLIC    CODE     ---       TAN?_

      ---         MODULE    ---      ---       atan2
      00FFDBBEH   PUBLIC    CODE     ---       atan2?_

      ---         MODULE    ---      ---       ?C?FPGETOPN
      00FF2710H   PUBLIC    CODE     ---       ?C?FPGETOPN2
      00FF274DH   PUBLIC    CODE     ---       ?C?FPNANRESULT
      00FF2755H   PUBLIC    CODE     ---       ?C?FPOVERFLOW
      00FF2729H   PUBLIC    CODE     ---       ?C?FPRESULT
      00FF273FH   PUBLIC    CODE     ---       ?C?FPRESULT2
      00FF2752H   PUBLIC    CODE     ---       ?C?FPUNDERFLOW

      ---         MODULE    ---      ---       ?C?PRNFMT
      00FF278EH   PUBLIC    CODE     ---       ?C?PRNFMT

      ---         MODULE    ---      ---       ?C?FPSERIES
      00FF2B9DH   PUBLIC    CODE     ---       ?C?FP2SERIES
      00FF2BA6H   PUBLIC    CODE     ---       ?C?FPSERIES

      ---         MODULE    ---      ---       ATAN?_
      00FF2BEAH   PUBLIC    CODE     ---       ATAN?_

      ---         MODULE    ---      ---       ?C?FPCONVERT
      00FF2CCAH   PUBLIC    CODE     ---       ?C?FPCONVERT
L251 LINKER/LOCATER V4.66.93.0                                                        06/12/2025  20:04:03  PAGE 141


      00FF2D82H   PUBLIC    CODE     ---       ?C?FPROUND

      ---         MODULE    ---      ---       ?C?FTNPWR
      00FF2DF5H   PUBLIC    CODE     ---       ?C?FTNPWR

      ---         MODULE    ---      ---       ?C?INITHDATA
      00FFD7D7H   PUBLIC    CODE     ---       ?C?INITHDATA

      ---         MODULE    ---      ---       ?C?SIDIV
      00FF2E2CH   PUBLIC    CODE     ---       ?C?SIDIV

      ---         MODULE    ---      ---       ?C?LIMUL
      00FF2E5EH   PUBLIC    CODE     ---       ?C?LIMUL

      ---         MODULE    ---      ---       ?C?ULDIV
      00FF2E69H   PUBLIC    CODE     NEAR LAB  ?C?ULDIV
      00FF2E67H   PUBLIC    CODE     NEAR LAB  ?C?ULIDIV

      ---         MODULE    ---      ---       ?C?SLDIV
      00FF2EBAH   PUBLIC    CODE     NEAR LAB  ?C?SLDIV

      ---         MODULE    ---      ---       ?C?BMOVEPP
      00FF2EF0H   PUBLIC    CODE     ---       ?C?BMOVEPP
      00FF2EEEH   PUBLIC    CODE     ---       ?C?BMOVEPP8

      ---         MODULE    ---      ---       ABS
      00FFE2C3H   PUBLIC    CODE     ---       abs?_

      ---         MODULE    ---      ---       STRCPY?_
      00FFE29EH   PUBLIC    CODE     NEAR LAB  STRCPY?_

      ---         MODULE    ---      ---       STRCMP?_
      00FF004AH   PUBLIC    CODE     NEAR LAB  STRCMP?_

      ---         MODULE    ---      ---       STRLEN
      00FFE2D3H   PUBLIC    CODE     ---       strlen?_

      ---         MODULE    ---      ---       memcpy
      00FFE213H   PUBLIC    CODE     ---       memcpy?_

      ---         MODULE    ---      ---       memset

      ---         MODULE    ---      ---       ?C?INITHDATA_END
      00FFE87EH   PUBLIC    HCONST   WORD      ?C?INITHDATA_END

Program Size: data=8.4 edata+hdata=1792 xdata=12036 const=5103 code=58042
L251 RUN COMPLETE.  0 WARNING(S),  0 ERROR(S)
